(dp1
S'output'
p2
S"<type 'exceptions.SyntaxError'> invalid syntax (sbtab2sbml.py, line 254)"
p3
sS'layer'
p4
S'/home/tlubitz/web2py/applications/SBtab/controllers/default.py'
p5
sS'code'
p6
S'# -*- coding: utf-8 -*-\n# this file is released under public domain and you can use without limitations\n\n#########################################################################\n## This is a sample controller\n## - index is the default action of any application\n## - user is required for authentication and authorization\n## - download is for downloading files uploaded in the db (does streaming)\n## - call exposes all registered services (none by default)\n#########################################################################\nimport tablib\nimport tablibIO\nimport validatorSBtab\nimport sbml2sbtab\nimport sbtab2sbml\nimport libsbml\nimport splitTabs\nimport tablib.packages.xlrd as xlrd\n\ndef index():\n    session.ex_warning = None\n    if not session.has_key(\'name2doc\'):\n        session.name2doc = {}\n    redirect(URL(\'../../static/introduction.html\'))\n\ndef clearsession():\n    session.sbtabs = []\n    session.sbtab_filenames = []\n    session.sbtab_docnames = []\n    session.sbtab_types = []\n    session.name2doc = {}\n    session.todeletename = []\n    \n    session.ex_warning = \'\'\n    #session.definition_file = []\n    #session.definition_file_name = []\n\n    session.sbmls = []\n    session.sbml_filenames = []\n\n    redirect(URL(\'../../static/introduction.html\'))\n\ndef validator():\n    """\n    example action using the internationalization operator T and flash\n    rendered by views/default/index.html or views/generic.html\n\n    if you need a simple wiki simple replace the two lines below with:\n    return auth.wiki()\n    """\n    #response.flash = T("Welcome to web2py!")\n    #session.clear()\n    response.title    = T(\'SBtab - Standardised data tables for Systems Biology\')\n    response.subtitle = T(\'Online Validator\')\n\n    lform = SQLFORM.factory(Field(\'File\', \'upload\',uploadfolder="/tmp", label=\'Upload SBtab file (.csv, .tsv, .xls)\'))\n\n    #update session lists\n    if lform.process().accepted:\n        response.flash = \'form accepted\'\n        session.ex_warning = None\n        try:\n            (sbtab_list,types,docs) = splitTabs.checkTabs([request.vars.File.value],request.vars.File.filename)\n            if not session.has_key(\'sbtabs\'):\n                session.sbtabs = [\'\\n\'.join(sbtab_list[0])]\n                session.sbtab_filenames = [request.vars.File.filename[:-4]+\'_\'+types[0]+request.vars.File.filename[-4:]]\n                session.sbtab_docnames  = [docs[0]]\n                session.sbtab_types     = [types[0]]\n                session.todeletename    = [request.vars.File.filename[:-4]+\'_\'+types[0]+request.vars.File.filename[-4:]]\n                session.name2doc[request.vars.File.filename[:-4]+\'_\'+types[0]+request.vars.File.filename[-4:]] = docs[0]\n                if len(sbtab_list) > 1:\n                    for i,sbtab in enumerate(sbtab_list[1:]):\n                        session.sbtabs.append(\'\\n\'.join(sbtab))\n                        session.sbtab_filenames.append(request.vars.File.filename[:-4]+\'_\'+types[i]+request.vars.File.filename[-4:])\n                        session.sbtab_docnames.append(docs[i])\n                        session.sbtab_types.append(types[i])\n                        session.todeletename.append(request.vars.File.filename[:-4]+\'_\'+types[i]+request.vars.File.filename[-4:])\n                        session.name2doc[request.vars.File.filename[:-4]+\'_\'+types[i]+request.vars.File.filename[-4:]] = docs[i]\n            else:\n                if len(sbtab_list) > 1:\n                    for i,sbtab in enumerate(sbtab_list):\n                        session.sbtabs.append(\'\\n\'.join(sbtab))\n                        session.sbtab_filenames.append(request.vars.File.filename[:-4]+\'_\'+types[i]+request.vars.File.filename[-4:])\n                        session.sbtab_docnames.append(docs[i])\n                        session.sbtab_types.append(types[i])\n                        session.todeletename.append(request.vars.File.filename[:-4]+\'_\'+types[i]+request.vars.File.filename[-4:])\n                        session.name2doc[request.vars.File.filename[:-4]+\'_\'+types[i]+request.vars.File.filename[-4:]] = docs[i]\n                else:\n                    session.sbtabs.append(\'\\n\'.join(sbtab_list[0]))\n                    session.sbtab_filenames.append(request.vars.File.filename[:-4]+\'_\'+types[0]+request.vars.File.filename[-4:])\n                    session.sbtab_docnames.append(docs[0])\n                    session.sbtab_types.append(types[0])\n                    session.todeletename.append(request.vars.File.filename[:-4]+\'_\'+types[0]+request.vars.File.filename[-4:])\n                    session.name2doc[request.vars.File.filename[:-4]+\'_\'+types[0]+request.vars.File.filename[-4:]] = docs[0]\n            #redirect(URL(\'\'))\n        except:\n            session.ex_warning = \'The file that you uploaded is no SBtab file. Please only use .csv, .tsv, or .xls format. If it still does not work out, please consult the SBtab specification.\'\n    elif lform.errors:\n        response.flash = \'form has errors\'\n\n    #pushed validation button\n    if request.vars.validate_button:\n        try:\n            FileValidClass = validatorSBtab.ValidateFile(session.sbtabs[int(request.vars.validate_button)],session.sbtab_filenames[int(request.vars.validate_button)])\n            v_output       = FileValidClass.returnOutput()        \n            new_tablib_obj = tablibIO.importSetNew(session.sbtabs[int(request.vars.validate_button)],session.sbtab_filenames[int(request.vars.validate_button)])\n\n            if new_tablib_obj:\n                if session.definition_file:\n                    TableValidClass = validatorSBtab.ValidateTable(new_tablib_obj,session.sbtab_filenames[int(request.vars.validate_button)],session.definition_file[0],session.definition_file_name[0])\n                    for itemx in TableValidClass.returnOutput():\n                        v_output.append(itemx)\n                else:\n                    TableValidClass = validatorSBtab.ValidateTable(new_tablib_obj,session.sbtab_filenames[int(request.vars.validate_button)])\n                    for itemx in TableValidClass.returnOutput():\n                        v_output.append(itemx)\n            sbtab2val  = session.sbtab_filenames[int(request.vars.validate_button)]\n            #redirect(URL(\'\'))\n            session.ex_warning = None\n        except:\n            session.ex_warning = \'Your file is corrupt. Even too corrupt to be validated. Please remove it and see the SBtab specification to try and create a better SBtab file.\'\n            v_output  = \'\'\n            sbtab2val = \'\'\n    else:\n        v_output  = \'\'\n        sbtab2val = \'\'\n\n    #pushed erase button\n    if request.vars.erase_button:\n        del session.sbtabs[int(request.vars.erase_button)]\n        del session.sbtab_filenames[int(request.vars.erase_button)]\n        del session.sbtab_docnames[int(request.vars.erase_button)]\n        del session.sbtab_types[int(request.vars.erase_button)]\n        del session.name2doc[session.todeletename[int(request.vars.erase_button)]]\n        del session.todeletename[int(request.vars.erase_button)]\n        session.ex_warning = None\n        redirect(URL(\'\'))\n\n    return dict(UPL_FORM=lform,SBTAB_LIST=session.sbtabs,NAME_LIST=session.sbtab_filenames,V_OUTPUT=v_output,SBTAB2VAL=sbtab2val,DOC_NAMES=session.sbtab_docnames,NAME2DOC=session.name2doc,EXWARNING=session.ex_warning)\n\ndef converter():\n    response.title = T(\'SBtab - Standardised data tables for Systems Biology\')\n    response.subtitle = T(\'SBML / SBtab Conversion\')\n\n    #Form for SBtab files\n    lform = SQLFORM.factory(Field(\'File\', \'upload\',uploadfolder="/tmp", label=\'Upload SBtab file to convert (.csv, .tsv, .xls)\'))\n\n    #update session lists\n    if lform.process(formname=\'form_one\').accepted:\n            response.flash = \'form accepted\'\n            #try:\n            (sbtab_list,types,docs) = splitTabs.checkTabs([request.vars.File.value],request.vars.File.filename)\n            if not session.has_key(\'sbtabs\'):\n                session.sbtabs = [\'\\n\'.join(sbtab_list[0])]\n                session.sbtab_filenames = [request.vars.File.filename[:-4]+\'_\'+types[0]+request.vars.File.filename[-4:]]\n                session.sbtab_docnames  = [docs[0]]\n                session.sbtab_types     = [types[0]]\n                session.todeletename    = [request.vars.File.filename[:-4]+\'_\'+types[0]+request.vars.File.filename[-4:]]\n                session.name2doc[request.vars.File.filename[:-4]+\'_\'+types[0]+request.vars.File.filename[-4:]] = docs[0]\n                if len(sbtab_list) > 1:\n                    for i,sbtab in enumerate(sbtab_list[1:]):\n                        session.sbtabs.append(\'\\n\'.join(sbtab))\n                        session.sbtab_filenames.append(request.vars.File.filename[:-4]+\'_\'+types[i]+request.vars.File.filename[-4:])\n                        session.sbtab_docnames.append(docs[i])\n                        session.sbtab_types.append(types[i])\n                        session.todeletename.append(request.vars.File.filename[:-4]+\'_\'+types[0]+request.vars.File.filename[-4:])\n                        session.name2doc[request.vars.File.filename[:-4]+\'_\'+types[i]+request.vars.File.filename[-4:]] = docs[i]\n            else:\n                if len(sbtab_list) > 1:\n                    for i,sbtab in enumerate(sbtab_list):\n                        session.sbtabs.append(\'\\n\'.join(sbtab))\n                        session.sbtab_filenames.append(request.vars.File.filename[:-4]+\'_\'+types[i]+request.vars.File.filename[-4:])\n                        session.sbtab_docnames.append(docs[i])\n                        session.sbtab_types.append(types[i])\n                        session.todeletename.append(request.vars.File.filename[:-4]+\'_\'+types[0]+request.vars.File.filename[-4:])\n                        session.name2doc[request.vars.File.filename[:-4]+\'_\'+types[i]+request.vars.File.filename[-4:]] = docs[i]\n                else:\n                    session.sbtabs.append(\'\\n\'.join(sbtab_list[0]))\n                    session.sbtab_filenames.append(request.vars.File.filename[:-4]+\'_\'+types[0]+request.vars.File.filename[-4:])\n                    session.sbtab_docnames.append(docs[0])\n                    session.sbtab_types.append(types[0])\n                    session.todeletename.append(request.vars.File.filename[:-4]+\'_\'+types[0]+request.vars.File.filename[-4:])\n                    session.name2doc[request.vars.File.filename[:-4]+\'_\'+types[0]+request.vars.File.filename[-4:]] = docs[0]\n        #except:\n        #    session.ex_warning = \'The file that you uploaded is no SBtab file. Please only use .tsv, .csv, or .xls format. If it still does not work out, please consult the SBtab specification.\'\n    elif lform.errors:\n        response.flash = \'form has errors\'\n\n\n    # convert sbtab2sbml button is pushed\n    if request.vars.c2sbml_button:\n        #try:\n            sbtab_document = sbtab2sbml.SBtabDocument(session.sbtabs[int(request.vars.c2sbml_button)],session.sbtab_filenames[int(request.vars.c2sbml_button)])\n            new_sbml       = sbtab_document.makeSBML()\n            if not session.has_key(\'sbmls\'):\n                session.sbmls = [new_sbml]\n                session.sbml_filenames = [session.sbtab_filenames[int(request.vars.c2sbml_button)].rstrip(\'.tcsvxl\')+\'_SBML.xml\']\n            else:\n                session.sbmls.append(new_sbml)\n                session.sbml_filenames.append(session.sbtab_filenames[int(request.vars.c2sbml_button)].rstrip(\'.tcxlsv\')+\'_SBML.xml\')\n        #except:\n        #    session.ex_warning = \'The SBtab file could not be converted to SBML. Please check whether you have a valid Reaction SBtab file.\'\n\n    if request.vars.dl_sbtab_button:\n        downloader_sbtab()\n\n    if request.vars.convert_all_button:\n        try:\n            convert_document = session.sbtab_docnames[int(request.vars.convert_all_button)]\n            merged_sbtabs    = []\n            for i,docname in enumerate(session.sbtab_docnames):\n                if docname == convert_document:\n                    merged_sbtabs.append(session.sbtabs[i])\n            sbtab_document = sbtab2sbml.SBtabDocument(merged_sbtabs,\'merged_unknown.tsv\',tabs=2)\n            new_sbml       = sbtab_document.makeSBML()\n            if not session.has_key(\'sbmls\'):\n                session.sbmls = [new_sbml]\n                session.sbml_filenames = [convert_document+\'.xml\']\n            else:\n                session.sbmls.append(new_sbml)\n                session.sbml_filenames.append(convert_document+\'.xml\')\n        except:\n            session.ex_warning = \'The SBtab file could not be converted to SBML. Please check whether you have a valid Reaction SBtab file.\'\n\n    #Form for SBML files\n    rform = SQLFORM.factory(Field(\'File\', \'upload\',uploadfolder="/tmp", label=\'Upload SBML file to convert (.xml)\'))\n\n    if rform.process(formname=\'form_two\').accepted:\n        response.flash = \'form accepted\'\n        if not session.has_key(\'sbmls\'):\n            session.sbmls = [request.vars.File.value]\n            session.sbml_filenames = [request.vars.File.filename]\n        else:\n            session.sbmls.append(request.vars.File.value)\n            session.sbml_filenames.append(request.vars.File.filename)\n    elif rform.errors:\n        response.flash = \'form has errors\'\n\n    if request.vars.erase_sbml_button:\n        del session.sbmls[int(request.vars.erase_sbml_button)]\n        del session.sbml_filenames[int(request.vars.erase_sbml_button)]\n        session.ex_warning = None\n        redirect(URL(\'\'))\n\n    # convert sbml2sbtab button is pushed\n    if request.vars.c2sbtab_button:\n        try:\n            reader     = libsbml.SBMLReader()\n            sbml_model = reader.readSBMLFromString(session.sbmls[int(request.vars.c2sbtab_button)])\n            ConvSBMLClass = sbml2sbtab.SBMLDocument(sbml_model.getModel(),session.sbml_filenames[int(request.vars.c2sbtab_button)])\n            tab_output    = ConvSBMLClass.makeSBtabs()\n            # append generated SBtabs to session variables\n            for SBtab in tab_output:\n                if not session.has_key(\'sbtabs\'):\n                    session.sbtabs = [SBtab[0]]\n                    session.sbtab_filenames = [session.sbml_filenames[int(request.vars.c2sbtab_button)].rstrip(\'.xml\')+\'_\'+SBtab[1]+\'_SBtab.tsv\']\n                    session.sbtab_docnames = [session.sbml_filenames[int(request.vars.c2sbtab_button)].rstrip(\'.xml\')]\n                    session.sbtab_types    = [SBtab[1]]\n                    session.todeletename   = [session.sbml_filenames[int(request.vars.c2sbtab_button)].rstrip(\'.xml\')+\'_\'+SBtab[1]+\'_SBtab.tsv\']\n                    session.name2doc[session.sbml_filenames[int(request.vars.c2sbtab_button)].rstrip(\'.xml\')+\'_\'+SBtab[1]+\'_SBtab.tsv\'] = session.sbml_filenames[int(request.vars.c2sbtab_button)].rstrip(\'.xml\')\n                else:\n                    session.sbtabs.append(SBtab[0])\n                    session.sbtab_filenames.append(session.sbml_filenames[int(request.vars.c2sbtab_button)].rstrip(\'.xml\')+\'_\'+SBtab[1]+\'_SBtab.tsv\')\n                    session.sbtab_docnames.append(session.sbml_filenames[int(request.vars.c2sbtab_button)].rstrip(\'.xml\'))\n                    session.sbtab_types.append(SBtab[1])\n                    session.todeletename.append(session.sbml_filenames[int(request.vars.c2sbtab_button)].rstrip(\'.xml\')+\'_\'+SBtab[1]+\'_SBtab.tsv\')\n                    session.name2doc[session.sbml_filenames[int(request.vars.c2sbtab_button)].rstrip(\'.xml\')+\'_\'+SBtab[1]+\'_SBtab.tsv\'] = session.sbml_filenames[int(request.vars.c2sbtab_button)].rstrip(\'.xml\')\n            #redirect(URL(\'\'))\n        except:\n            session.ex_warning = \'The SBML file could not be converted to SBtab. Please check whether your SBML file is valid.\'\n\n    if request.vars.erase_sbtab_button:\n        del session.sbtabs[int(request.vars.erase_sbtab_button)]\n        del session.sbtab_filenames[int(request.vars.erase_sbtab_button)]\n        del session.sbtab_docnames[int(request.vars.erase_sbtab_button)]\n        del session.sbtab_types[int(request.vars.erase_sbtab_button)]\n        del session.name2doc[session.todeletename[int(request.vars.erase_sbtab_button)]]\n        del session.todeletename[int(request.vars.erase_sbtab_button)]\n        session.ex_warning = None\n        redirect(URL(\'\'))\n\n    if request.vars.dl_sbml_button:\n        downloader_sbml()\n        \n    return dict(UPL_FORML=lform,UPL_FORMR=rform,SBTAB_LIST=session.sbtabs,SBML_LIST=session.sbmls,NAME_LIST_SBTAB=session.sbtab_filenames,NAME_LIST_SBML=session.sbml_filenames,DOC_NAMES=session.sbtab_docnames,NAME2DOC=session.name2doc,EXWARNING=session.ex_warning,TYPES=session.sbtab_types)\n\n\ndef def_files():\n    \'\'\'\n    upload your own definition SBtab\n    \'\'\'\n    response.title = T(\'SBtab - Standardised data tables for Systems Biology\')\n    response.subtitle = T(\'Upload your own definition files\')\n\n    dform = SQLFORM.factory(Field(\'File\', \'upload\',uploadfolder="/tmp", label=\'Upload definition file (.csv, .tsv)\'))\n\n    #update session lists\n    if dform.process().accepted:\n        response.flash = \'form accepted\'\n        session.definition_file      = [request.vars.File.value]\n        session.definition_file_name = [request.vars.File.filename]\n    elif dform.errors:\n        response.flash = \'form has errors\'\n\n    #pushed erase button\n    if request.vars.erase_def_button:\n        del session.definition_file[int(request.vars.erase_def_button)]\n        del session.definition_file_name[int(request.vars.erase_def_button)]\n        redirect(URL(\'\'))\n\n    return dict(UPL_FORM=dform,DEF_FILE=session.definition_file,DEF_NAME=session.definition_file_name)\n\ndef downloader_sbtab():\n        response.headers[\'Content-Type\'] = \'text/csv\'\n        attachment = \'attachment;filename=\' + session.sbtab_filenames[int(request.vars.dl_sbtab_button)]\n        response.headers[\'Content-Disposition\'] = attachment\n        \n        content = session.sbtabs[int(request.vars.dl_sbtab_button)]\n        raise HTTP(200,str(content),\n                   **{\'Content-Type\':\'text/csv\',\n                      \'Content-Disposition\':attachment + \';\'})\n\ndef downloader_sbml():\n        response.headers[\'Content-Type\'] = \'text/xml\'\n        attachment = \'attachment;filename=\' + session.sbml_filenames[int(request.vars.dl_sbml_button)]\n        response.headers[\'Content-Disposition\'] = attachment\n        \n        content = session.sbmls[int(request.vars.dl_sbml_button)]\n        raise HTTP(200,str(content),\n                   **{\'Content-Type\':\'text/xml\',\n                      \'Content-Disposition\':attachment + \';\'})\n\ndef show_sbtab_xls():\n    \'\'\'\n    displays xls SBtab file\n    \'\'\'\n    file_name = session.sbtab_filenames[int(request.args(0))]\n    xls_sbtab = session.sbtabs[int(request.args(0))]\n\n    nice_sbtab = \'<p><h2><b>\'+file_name+\'</b></h2></p>\'\n\n    dbook = tablib.Databook()\n    xl = xlrd.open_workbook(file_contents=xls_sbtab)\n\n    for sheetname in xl.sheet_names():\n        dset = tablib.Dataset()\n        dset.title = sheetname\n        sheet = xl.sheet_by_name(sheetname)\n        for row in range(sheet.nrows):\n            if row == 0:\n                new_row = \'\'\n                for thing in sheet.row_values(row):\n                    if not thing == \'\': new_row += thing\n                nice_sbtab += \'<a style="background-color:#A4A4A4">\'+new_row+\'</a><br>\'\n                nice_sbtab += \'<table>\'\n            elif row == 1:\n                new_row = \'\'\n                for thing in sheet.row_values(row):\n                    if not thing == \'\': new_row += \'<td>\'+thing+\'</td>\'\n                nice_sbtab += \'<tr bgcolor="#BDBDBD">\'+new_row+\'</tr>\'\n            else:\n                new_row = \'\'\n                for thing in sheet.row_values(row):\n                    new_row += \'<td>\'+thing+\'</td>\'\n                nice_sbtab += \'<tr>\'+new_row+\'</tr>\'\n                    \n    return nice_sbtab    \n\ndef show_sbtab():\n    \'\'\'\n    displays a given SBtab file\n    \'\'\'\n    file_name = session.sbtab_filenames[int(request.args(0))]\n    if file_name.endswith(\'.tsv\') or file_name.endswith(\'.csv\'):\n        delimiter = \'\\t\'\n    else: return show_sbtab_xls()\n    \n    ugly_sbtab = session.sbtabs[int(request.args(0))].split(\'\\n\')\n    nice_sbtab = \'<p><h2><b>\'+session.sbtab_filenames[int(request.args(0))]+\'</b></h2></p>\'\n\n    nice_sbtab += \'<a style="background-color:#A4A4A4">\'+ugly_sbtab[0]+\'</a><br>\'\n\n    nice_sbtab += \'<table>\'\n    for row in ugly_sbtab[1:]:\n        if row.startswith(\'!\'): nice_sbtab += \'<tr bgcolor="#BDBDBD">\'\n        else: nice_sbtab += \'<tr>\'\n        for thing in row.split(delimiter):\n            new_row = \'<td>\'+thing+\'</\\td>\'\n            nice_sbtab += new_row\n        nice_sbtab += \'</tr>\'\n    nice_sbtab += \'</table>\'\n    \n    return nice_sbtab\n\ndef show_sbml():\n    \'\'\'\n    displays a given SBML file\n    \'\'\'\n    new_sbml = \'<xmp>\'\n    old_sbml = session.sbmls[int(request.args(0))].split(\'\\n\')\n\n    for row in old_sbml:\n        new_sbml += row + \'\\n\'\n\n    new_sbml += \'</xmp>\'\n        \n    return new_sbml\n\n\ndef user():\n    """\n    exposes:\n    http://..../[app]/default/user/login\n    http://..../[app]/default/user/logout\n    http://..../[app]/default/user/register\n    http://..../[app]/default/user/profile\n    http://..../[app]/default/user/retrieve_password\n    http://..../[app]/default/user/change_password\n    http://..../[app]/default/user/manage_users (requires membership in \n    use @auth.requires_login()\n        @auth.requires_membership(\'group name\')\n        @auth.requires_permission(\'read\',\'table name\',record_id)\n    to decorate functions that need access control\n    """\n    return dict(form=auth())\n\n@cache.action()\ndef download():\n    """\n    allows downloading of uploaded files\n    http://..../[app]/default/download/[filename]\n    """\n    return response.download(request, db)\n\n\ndef call():\n    """\n    exposes services. for example:\n    http://..../[app]/default/call/jsonrpc\n    decorate with @services.jsonrpc the functions to expose\n    supports xml, json, xmlrpc, jsonrpc, amfrpc, rss, csv\n    """\n    return service()\n\n\n@auth.requires_signature()\ndef data():\n    """\n    http://..../[app]/default/data/tables\n    http://..../[app]/default/data/create/[table]\n    http://..../[app]/default/data/read/[table]/[id]\n    http://..../[app]/default/data/update/[table]/[id]\n    http://..../[app]/default/data/delete/[table]/[id]\n    http://..../[app]/default/data/select/[table]\n    http://..../[app]/default/data/search/[table]\n    but URLs must be signed, i.e. linked with\n      A(\'table\',_href=URL(\'data/tables\',user_signature=True))\n    or with the signed load operator\n      LOAD(\'default\',\'data.load\',args=\'tables\',ajax=True,user_signature=True)\n    """\n    return dict(form=crud())\n\nresponse._vars=response._caller(converter)\n'
p7
sS'snapshot'
p8
(dp9
S'exception'
p10
(dp11
S'__getslice__'
p12
S"<method-wrapper '__getslice__' of exceptions.SyntaxError object>"
p13
sS'text'
p14
S'"                if \'!Name\' in sbtab.columns and ....columns_dict[\'!Name\']]).startswith(\'No Name\')::\\n"'
p15
sS'__str__'
p16
S"<method-wrapper '__str__' of exceptions.SyntaxError object>"
p17
sS'__reduce__'
p18
S'<built-in method __reduce__ of exceptions.SyntaxError object>'
p19
sS'__dict__'
p20
S'{}'
p21
sS'__sizeof__'
p22
S'<built-in method __sizeof__ of exceptions.SyntaxError object>'
p23
sS'__init__'
p24
S"<method-wrapper '__init__' of exceptions.SyntaxError object>"
p25
sS'__setattr__'
p26
S"<method-wrapper '__setattr__' of exceptions.SyntaxError object>"
p27
sS'__reduce_ex__'
p28
S'<built-in method __reduce_ex__ of exceptions.SyntaxError object>'
p29
sS'__new__'
p30
S'<built-in method __new__ of type object>'
p31
sS'__format__'
p32
S'<built-in method __format__ of exceptions.SyntaxError object>'
p33
sS'__class__'
p34
S"<type 'exceptions.SyntaxError'>"
p35
sS'filename'
p36
S"'applications/SBtab/modules/sbtab2sbml.py'"
p37
sS'lineno'
p38
S'254'
p39
sS'msg'
p40
S"'invalid syntax'"
p41
sS'__doc__'
p42
S"'Invalid syntax.'"
p43
sS'__getitem__'
p44
S"<method-wrapper '__getitem__' of exceptions.SyntaxError object>"
p45
sS'__setstate__'
p46
S'<built-in method __setstate__ of exceptions.SyntaxError object>'
p47
sS'__getattribute__'
p48
S"<method-wrapper '__getattribute__' of exceptions.SyntaxError object>"
p49
sS'print_file_and_line'
p50
S'None'
p51
sS'args'
p52
S'(\'invalid syntax\', (\'applications/SBtab/modules/sbtab2sbml.py\', 254, 160, "                if \'!Name\' in sbtab.columns and ....columns_dict[\'!Name\']]).startswith(\'No Name\')::\\n"))'
p53
sS'__subclasshook__'
p54
S'<built-in method __subclasshook__ of type object>'
p55
sS'offset'
p56
S'160'
p57
sS'__unicode__'
p58
S'<built-in method __unicode__ of exceptions.SyntaxError object>'
p59
sS'__delattr__'
p60
S"<method-wrapper '__delattr__' of exceptions.SyntaxError object>"
p61
sS'__repr__'
p62
S"<method-wrapper '__repr__' of exceptions.SyntaxError object>"
p63
sS'__hash__'
p64
S"<method-wrapper '__hash__' of exceptions.SyntaxError object>"
p65
ssS'evalue'
p66
S'invalid syntax (sbtab2sbml.py, line 254)'
p67
sS'request'
p68
cgluon.html
XML_unpickle
p69
(S'syS\x00\x00<div><table><tr><td style="font-weight:bold;vertical-align:top;">ajax</td><td style="vertical-align:top;">:</td><td><div>False</div></td></tr><tr><td style="font-weight:bold;vertical-align:top;">application</td><td style="vertical-align:top;">:</td><td><div>SBtab</div></td></tr><tr><td style="font-weight:bold;vertical-align:top;">args</td><td style="vertical-align:top;">:</td><td><div><table></table></div></td></tr><tr><td style="font-weight:bold;vertical-align:top;">cid</td><td style="vertical-align:top;">:</td><td><div>None</div></td></tr><tr><td style="font-weight:bold;vertical-align:top;">client</td><td style="vertical-align:top;">:</td><td><div>127.0.0.1</div></td></tr><tr><td style="font-weight:bold;vertical-align:top;">controller</td><td style="vertical-align:top;">:</td><td><div>default</div></td></tr><tr><td style="font-weight:bold;vertical-align:top;">cookies</td><td style="vertical-align:top;">:</td><td><div><table><tr><td style="font-weight:bold;vertical-align:top;">session_id_admin</td><td style="vertical-align:top;">:</td><td><div>127.0.0.1-85c6d8e2-03ca-403a-b386-8bd8b45fdc60<table><tr><td style="font-weight:bold;vertical-align:top;">comment</td><td style="vertical-align:top;">:</td><td><div></div></td></tr><tr><td style="font-weight:bold;vertical-align:top;">domain</td><td style="vertical-align:top;">:</td><td><div></div></td></tr><tr><td style="font-weight:bold;vertical-align:top;">expires</td><td style="vertical-align:top;">:</td><td><div></div></td></tr><tr><td style="font-weight:bold;vertical-align:top;">httponly</td><td style="vertical-align:top;">:</td><td><div></div></td></tr><tr><td style="font-weight:bold;vertical-align:top;">max-age</td><td style="vertical-align:top;">:</td><td><div></div></td></tr><tr><td style="font-weight:bold;vertical-align:top;">path</td><td style="vertical-align:top;">:</td><td><div></div></td></tr><tr><td style="font-weight:bold;vertical-align:top;">secure</td><td style="vertical-align:top;">:</td><td><div></div></td></tr><tr><td style="font-weight:bold;vertical-align:top;">version</td><td style="vertical-align:top;">:</td><td><div></div></td></tr></table></div></td></tr><tr><td style="font-weight:bold;vertical-align:top;">session_id_sbtab</td><td style="vertical-align:top;">:</td><td><div>127.0.0.1-62b61398-f441-485d-b650-008057b12e90<table><tr><td style="font-weight:bold;vertical-align:top;">comment</td><td style="vertical-align:top;">:</td><td><div></div></td></tr><tr><td style="font-weight:bold;vertical-align:top;">domain</td><td style="vertical-align:top;">:</td><td><div></div></td></tr><tr><td style="font-weight:bold;vertical-align:top;">expires</td><td style="vertical-align:top;">:</td><td><div></div></td></tr><tr><td style="font-weight:bold;vertical-align:top;">httponly</td><td style="vertical-align:top;">:</td><td><div></div></td></tr><tr><td style="font-weight:bold;vertical-align:top;">max-age</td><td style="vertical-align:top;">:</td><td><div></div></td></tr><tr><td style="font-weight:bold;vertical-align:top;">path</td><td style="vertical-align:top;">:</td><td><div></div></td></tr><tr><td style="font-weight:bold;vertical-align:top;">secure</td><td style="vertical-align:top;">:</td><td><div></div></td></tr><tr><td style="font-weight:bold;vertical-align:top;">version</td><td style="vertical-align:top;">:</td><td><div></div></td></tr></table></div></td></tr></table></div></td></tr><tr><td style="font-weight:bold;vertical-align:top;">env</td><td style="vertical-align:top;">:</td><td><div><table><tr><td style="font-weight:bold;vertical-align:top;">HTTP_ACCEPT</td><td style="vertical-align:top;">:</td><td><div>text/html,application/xhtml+xml,application/xml;q=0.9,image/webp,*/*;q=0.8</div></td></tr><tr><td style="font-weight:bold;vertical-align:top;">HTTP_ACCEPT_ENCODING</td><td style="vertical-align:top;">:</td><td><div>gzip,deflate,sdch</div></td></tr><tr><td style="font-weight:bold;vertical-align:top;">HTTP_ACCEPT_LANGUAGE</td><td style="vertical-align:top;">:</td><td><div>en-US,en;q=0.8,de;q=0.6</div></td></tr><tr><td style="font-weight:bold;vertical-align:top;">HTTP_CACHE_CONTROL</td><td style="vertical-align:top;">:</td><td><div>max-age=0</div></td></tr><tr><td style="font-weight:bold;vertical-align:top;">HTTP_CONNECTION</td><td style="vertical-align:top;">:</td><td><div>keep-alive</div></td></tr><tr><td style="font-weight:bold;vertical-align:top;">HTTP_COOKIE</td><td style="vertical-align:top;">:</td><td><div>session_id_admin=127.0.0.1-85c6d8e2-03ca-403a-b386-8bd8b45fdc60; session_id_sbtab=127.0.0.1-62b61398-f441-485d-b650-008057b12e90</div></td></tr><tr><td style="font-weight:bold;vertical-align:top;">HTTP_HOST</td><td style="vertical-align:top;">:</td><td><div>127.0.0.1:8000</div></td></tr><tr><td style="font-weight:bold;vertical-align:top;">HTTP_USER_AGENT</td><td style="vertical-align:top;">:</td><td><div>Mozilla/5.0 (X11; Linux x86_64) AppleWebKit/537.36 (KHTML, like Gecko) Ubuntu Chromium/38.0.2125.111 Chrome/38.0.2125.111 Safari/537.36</div></td></tr><tr><td style="font-weight:bold;vertical-align:top;">PATH_INFO</td><td style="vertical-align:top;">:</td><td><div>/converter</div></td></tr><tr><td style="font-weight:bold;vertical-align:top;">QUERY_STRING</td><td style="vertical-align:top;">:</td><td><div></div></td></tr><tr><td style="font-weight:bold;vertical-align:top;">REMOTE_ADDR</td><td style="vertical-align:top;">:</td><td><div>127.0.0.1</div></td></tr><tr><td style="font-weight:bold;vertical-align:top;">REMOTE_PORT</td><td style="vertical-align:top;">:</td><td><div>53925</div></td></tr><tr><td style="font-weight:bold;vertical-align:top;">REQUEST_METHOD</td><td style="vertical-align:top;">:</td><td><div>GET</div></td></tr><tr><td style="font-weight:bold;vertical-align:top;">SCRIPT_NAME</td><td style="vertical-align:top;">:</td><td><div></div></td></tr><tr><td style="font-weight:bold;vertical-align:top;">SERVER_NAME</td><td style="vertical-align:top;">:</td><td><div>isis.biologie.hu-berlin.de</div></td></tr><tr><td style="font-weight:bold;vertical-align:top;">SERVER_PORT</td><td style="vertical-align:top;">:</td><td><div>8000</div></td></tr><tr><td style="font-weight:bold;vertical-align:top;">SERVER_PROTOCOL</td><td style="vertical-align:top;">:</td><td><div>HTTP/1.1</div></td></tr><tr><td style="font-weight:bold;vertical-align:top;">SERVER_SOFTWARE</td><td style="vertical-align:top;">:</td><td><div>Rocket 1.2.6</div></td></tr><tr><td style="font-weight:bold;vertical-align:top;">app_folders</td><td style="vertical-align:top;">:</td><td><div>set([&#x27;/home/tlubitz/web2py/applications/SBtab/&#x27;])</div></td></tr><tr><td style="font-weight:bold;vertical-align:top;">applications_parent</td><td style="vertical-align:top;">:</td><td><div>/home/tlubitz/web2py</div></td></tr><tr><td style="font-weight:bold;vertical-align:top;">cmd_args</td><td style="vertical-align:top;">:</td><td><div><table></table></div></td></tr><tr><td style="font-weight:bold;vertical-align:top;">cmd_options</td><td style="vertical-align:top;">:</td><td><div>&lt;Values at 0x7f9f0289b518: {&#x27;verbose&#x27;: False, &#x27;ip&#x27;: &#x27;127.0.0.1&#x27;, &#x27;debuglevel&#x27;: 30, &#x27;with_scheduler&#x27;: False, &#x27;ips&#x27;: [&#x27;141.20.63.185&#x27;], &#x27;shutdown_timeout&#x27;: 5, &#x27;taskbar&#x27;: False, &#x27;with_coverage&#x27;: False, &#x27;port&#x27;: 8000, &#x27;maxthreads&#x27;: None, &#x27;softcron&#x27;: False, &#x27;server_name&#x27;: &#x27;isis.biologie.hu-berlin.de&#x27;, &#x27;bpython&#x27;: False, &#x27;nogui&#x27;: False, &#x27;pid_filename&#x27;: &#x27;httpserver.pid&#x27;, &#x27;extcron&#x27;: False, &#x27;runcron&#x27;: False, &#x27;run_system_tests&#x27;: False, &#x27;test&#x27;: None, &#x27;folder&#x27;: &#x27;/home/tlubitz/web2py&#x27;, &#x27;config&#x27;: &#x27;&#x27;, &#x27;minthreads&#x27;: None, &#x27;shell&#x27;: None, &#x27;run&#x27;: &#x27;&#x27;, &#x27;log_filename&#x27;: &#x27;httpserver.log&#x27;, &#x27;profiler_dir&#x27;: None, &#x27;args&#x27;: [&#x27;&#x27;], &#x27;socket_timeout&#x27;: 5, &#x27;ssl_ca_certificate&#x27;: None, &#x27;scheduler&#x27;: None, &#x27;interfaces&#x27;: None, &#x27;ssl_private_key&#x27;: &#x27;&#x27;, &#x27;scheduler_groups&#x27;: None, &#x27;password&#x27;: &#x27;hund&#x27;, &#x27;request_queue_size&#x27;: 5, &#x27;ssl_certificate&#x27;: &#x27;&#x27;, &#x27;cronjob&#x27;: False, &#x27;numthreads&#x27;: None, &#x27;quiet&#x27;: False, &#x27;import_models&#x27;: False, &#x27;timeout&#x27;: 10, &#x27;plain&#x27;: False, &#x27;nobanner&#x27;: False}&gt;</div></td></tr><tr><td style="font-weight:bold;vertical-align:top;">db_sessions</td><td style="vertical-align:top;">:</td><td><div>set([])</div></td></tr><tr><td style="font-weight:bold;vertical-align:top;">debugging</td><td style="vertical-align:top;">:</td><td><div>False</div></td></tr><tr><td style="font-weight:bold;vertical-align:top;">gluon_parent</td><td style="vertical-align:top;">:</td><td><div>/home/tlubitz/web2py</div></td></tr><tr><td style="font-weight:bold;vertical-align:top;">http_accept</td><td style="vertical-align:top;">:</td><td><div>text/html,application/xhtml+xml,application/xml;q=0.9,image/webp,*/*;q=0.8</div></td></tr><tr><td style="font-weight:bold;vertical-align:top;">http_accept_encoding</td><td style="vertical-align:top;">:</td><td><div>gzip,deflate,sdch</div></td></tr><tr><td style="font-weight:bold;vertical-align:top;">http_accept_language</td><td style="vertical-align:top;">:</td><td><div>en-US,en;q=0.8,de;q=0.6</div></td></tr><tr><td style="font-weight:bold;vertical-align:top;">http_cache_control</td><td style="vertical-align:top;">:</td><td><div>max-age=0</div></td></tr><tr><td style="font-weight:bold;vertical-align:top;">http_connection</td><td style="vertical-align:top;">:</td><td><div>keep-alive</div></td></tr><tr><td style="font-weight:bold;vertical-align:top;">http_cookie</td><td style="vertical-align:top;">:</td><td><div>session_id_admin=127.0.0.1-85c6d8e2-03ca-403a-b386-8bd8b45fdc60; session_id_sbtab=127.0.0.1-62b61398-f441-485d-b650-008057b12e90</div></td></tr><tr><td style="font-weight:bold;vertical-align:top;">http_host</td><td style="vertical-align:top;">:</td><td><div>127.0.0.1:8000</div></td></tr><tr><td style="font-weight:bold;vertical-align:top;">http_user_agent</td><td style="vertical-align:top;">:</td><td><div>Mozilla/5.0 (X11; Linux x86_64) AppleWebKit/537.36 (KHTML, like Gecko) Ubuntu Chromium/38.0.2125.111 Chrome/38.0.2125.111 Safari/537.36</div></td></tr><tr><td style="font-weight:bold;vertical-align:top;">is_jython</td><td style="vertical-align:top;">:</td><td><div>False</div></td></tr><tr><td style="font-weight:bold;vertical-align:top;">is_pypy</td><td style="vertical-align:top;">:</td><td><div>False</div></td></tr><tr><td style="font-weight:bold;vertical-align:top;">is_source</td><td style="vertical-align:top;">:</td><td><div>True</div></td></tr><tr><td style="font-weight:bold;vertical-align:top;">local_hosts</td><td style="vertical-align:top;">:</td><td><div><table><tr><td><div>::1</div></td></tr><tr><td><div>141.20.63.185</div></td></tr><tr><td><div>::ffff:127.0.0.1</div></td></tr><tr><td><div>127.0.0.1</div></td></tr><tr><td><div>isis.biologie.hu-berlin.de</div></td></tr></table></div></td></tr><tr><td style="font-weight:bold;vertical-align:top;">path_info</td><td style="vertical-align:top;">:</td><td><div>/converter</div></td></tr><tr><td style="font-weight:bold;vertical-align:top;">query_string</td><td style="vertical-align:top;">:</td><td><div></div></td></tr><tr><td style="font-weight:bold;vertical-align:top;">remote_addr</td><td style="vertical-align:top;">:</td><td><div>127.0.0.1</div></td></tr><tr><td style="font-weight:bold;vertical-align:top;">remote_port</td><td style="vertical-align:top;">:</td><td><div>53925</div></td></tr><tr><td style="font-weight:bold;vertical-align:top;">request_method</td><td style="vertical-align:top;">:</td><td><div>GET</div></td></tr><tr><td style="font-weight:bold;vertical-align:top;">request_uri</td><td style="vertical-align:top;">:</td><td><div>/SBtab/default/converter</div></td></tr><tr><td style="font-weight:bold;vertical-align:top;">script_name</td><td style="vertical-align:top;">:</td><td><div></div></td></tr><tr><td style="font-weight:bold;vertical-align:top;">server_name</td><td style="vertical-align:top;">:</td><td><div>isis.biologie.hu-berlin.de</div></td></tr><tr><td style="font-weight:bold;vertical-align:top;">server_port</td><td style="vertical-align:top;">:</td><td><div>8000</div></td></tr><tr><td style="font-weight:bold;vertical-align:top;">server_protocol</td><td style="vertical-align:top;">:</td><td><div>HTTP/1.1</div></td></tr><tr><td style="font-weight:bold;vertical-align:top;">server_software</td><td style="vertical-align:top;">:</td><td><div>Rocket 1.2.6</div></td></tr><tr><td style="font-weight:bold;vertical-align:top;">web2py_original_uri</td><td style="vertical-align:top;">:</td><td><div>/converter</div></td></tr><tr><td style="font-weight:bold;vertical-align:top;">web2py_path</td><td style="vertical-align:top;">:</td><td><div>/home/tlubitz/web2py</div></td></tr><tr><td style="font-weight:bold;vertical-align:top;">web2py_version</td><td style="vertical-align:top;">:</td><td><div>2.8.2-stable+timestamp.2013.11.28.13.54.07</div></td></tr><tr><td style="font-weight:bold;vertical-align:top;">wsgi.errors</td><td style="vertical-align:top;">:</td><td><div>&lt;open file &#x27;&lt;stderr&gt;&#x27;, mode &#x27;w&#x27; at 0x7f9f0aa9e1e0&gt;</div></td></tr><tr><td style="font-weight:bold;vertical-align:top;">wsgi.file_wrapper</td><td style="vertical-align:top;">:</td><td><div>&lt;class wsgiref.util.FileWrapper at 0x7f9f02931738&gt;</div></td></tr><tr><td style="font-weight:bold;vertical-align:top;">wsgi.input</td><td style="vertical-align:top;">:</td><td><div>&lt;socket._fileobject object at 0x7f9ecd5c3750&gt;</div></td></tr><tr><td style="font-weight:bold;vertical-align:top;">wsgi.multiprocess</td><td style="vertical-align:top;">:</td><td><div>False</div></td></tr><tr><td style="font-weight:bold;vertical-align:top;">wsgi.multithread</td><td style="vertical-align:top;">:</td><td><div>True</div></td></tr><tr><td style="font-weight:bold;vertical-align:top;">wsgi.run_once</td><td style="vertical-align:top;">:</td><td><div>False</div></td></tr><tr><td style="font-weight:bold;vertical-align:top;">wsgi.url_scheme</td><td style="vertical-align:top;">:</td><td><div>http</div></td></tr><tr><td style="font-weight:bold;vertical-align:top;">wsgi.version</td><td style="vertical-align:top;">:</td><td><div><table><tr><td><div>1</div></td></tr><tr><td><div>0</div></td></tr></table></div></td></tr><tr><td style="font-weight:bold;vertical-align:top;">wsgi_errors</td><td style="vertical-align:top;">:</td><td><div>&lt;open file &#x27;&lt;stderr&gt;&#x27;, mode &#x27;w&#x27; at 0x7f9f0aa9e1e0&gt;</div></td></tr><tr><td style="font-weight:bold;vertical-align:top;">wsgi_file_wrapper</td><td style="vertical-align:top;">:</td><td><div>&lt;class wsgiref.util.FileWrapper at 0x7f9f02931738&gt;</div></td></tr><tr><td style="font-weight:bold;vertical-align:top;">wsgi_input</td><td style="vertical-align:top;">:</td><td><div>&lt;socket._fileobject object at 0x7f9ecd5c3750&gt;</div></td></tr><tr><td style="font-weight:bold;vertical-align:top;">wsgi_multiprocess</td><td style="vertical-align:top;">:</td><td><div>False</div></td></tr><tr><td style="font-weight:bold;vertical-align:top;">wsgi_multithread</td><td style="vertical-align:top;">:</td><td><div>True</div></td></tr><tr><td style="font-weight:bold;vertical-align:top;">wsgi_run_once</td><td style="vertical-align:top;">:</td><td><div>False</div></td></tr><tr><td style="font-weight:bold;vertical-align:top;">wsgi_url_scheme</td><td style="vertical-align:top;">:</td><td><div>http</div></td></tr><tr><td style="font-weight:bold;vertical-align:top;">wsgi_version</td><td style="vertical-align:top;">:</td><td><div><table><tr><td><div>1</div></td></tr><tr><td><div>0</div></td></tr></table></div></td></tr></table></div></td></tr><tr><td style="font-weight:bold;vertical-align:top;">extension</td><td style="vertical-align:top;">:</td><td><div>html</div></td></tr><tr><td style="font-weight:bold;vertical-align:top;">folder</td><td style="vertical-align:top;">:</td><td><div>/home/tlubitz/web2py/applications/SBtab/</div></td></tr><tr><td style="font-weight:bold;vertical-align:top;">function</td><td style="vertical-align:top;">:</td><td><div>converter</div></td></tr><tr><td style="font-weight:bold;vertical-align:top;">global_settings</td><td style="vertical-align:top;">:</td><td><div><table><tr><td style="font-weight:bold;vertical-align:top;">app_folders</td><td style="vertical-align:top;">:</td><td><div>set([&#x27;/home/tlubitz/web2py/applications/SBtab/&#x27;])</div></td></tr><tr><td style="font-weight:bold;vertical-align:top;">applications_parent</td><td style="vertical-align:top;">:</td><td><div>/home/tlubitz/web2py</div></td></tr><tr><td style="font-weight:bold;vertical-align:top;">cmd_args</td><td style="vertical-align:top;">:</td><td><div><table></table></div></td></tr><tr><td style="font-weight:bold;vertical-align:top;">cmd_options</td><td style="vertical-align:top;">:</td><td><div>&lt;Values at 0x7f9f0289b518: {&#x27;verbose&#x27;: False, &#x27;ip&#x27;: &#x27;127.0.0.1&#x27;, &#x27;debuglevel&#x27;: 30, &#x27;with_scheduler&#x27;: False, &#x27;ips&#x27;: [&#x27;141.20.63.185&#x27;], &#x27;shutdown_timeout&#x27;: 5, &#x27;taskbar&#x27;: False, &#x27;with_coverage&#x27;: False, &#x27;port&#x27;: 8000, &#x27;maxthreads&#x27;: None, &#x27;softcron&#x27;: False, &#x27;server_name&#x27;: &#x27;isis.biologie.hu-berlin.de&#x27;, &#x27;bpython&#x27;: False, &#x27;nogui&#x27;: False, &#x27;pid_filename&#x27;: &#x27;httpserver.pid&#x27;, &#x27;extcron&#x27;: False, &#x27;runcron&#x27;: False, &#x27;run_system_tests&#x27;: False, &#x27;test&#x27;: None, &#x27;folder&#x27;: &#x27;/home/tlubitz/web2py&#x27;, &#x27;config&#x27;: &#x27;&#x27;, &#x27;minthreads&#x27;: None, &#x27;shell&#x27;: None, &#x27;run&#x27;: &#x27;&#x27;, &#x27;log_filename&#x27;: &#x27;httpserver.log&#x27;, &#x27;profiler_dir&#x27;: None, &#x27;args&#x27;: [&#x27;&#x27;], &#x27;socket_timeout&#x27;: 5, &#x27;ssl_ca_certificate&#x27;: None, &#x27;scheduler&#x27;: None, &#x27;interfaces&#x27;: None, &#x27;ssl_private_key&#x27;: &#x27;&#x27;, &#x27;scheduler_groups&#x27;: None, &#x27;password&#x27;: &#x27;hund&#x27;, &#x27;request_queue_size&#x27;: 5, &#x27;ssl_certificate&#x27;: &#x27;&#x27;, &#x27;cronjob&#x27;: False, &#x27;numthreads&#x27;: None, &#x27;quiet&#x27;: False, &#x27;import_models&#x27;: False, &#x27;timeout&#x27;: 10, &#x27;plain&#x27;: False, &#x27;nobanner&#x27;: False}&gt;</div></td></tr><tr><td style="font-weight:bold;vertical-align:top;">db_sessions</td><td style="vertical-align:top;">:</td><td><div>set([])</div></td></tr><tr><td style="font-weight:bold;vertical-align:top;">debugging</td><td style="vertical-align:top;">:</td><td><div>False</div></td></tr><tr><td style="font-weight:bold;vertical-align:top;">gluon_parent</td><td style="vertical-align:top;">:</td><td><div>/home/tlubitz/web2py</div></td></tr><tr><td style="font-weight:bold;vertical-align:top;">is_jython</td><td style="vertical-align:top;">:</td><td><div>False</div></td></tr><tr><td style="font-weight:bold;vertical-align:top;">is_pypy</td><td style="vertical-align:top;">:</td><td><div>False</div></td></tr><tr><td style="font-weight:bold;vertical-align:top;">is_source</td><td style="vertical-align:top;">:</td><td><div>True</div></td></tr><tr><td style="font-weight:bold;vertical-align:top;">local_hosts</td><td style="vertical-align:top;">:</td><td><div><table><tr><td><div>::1</div></td></tr><tr><td><div>141.20.63.185</div></td></tr><tr><td><div>::ffff:127.0.0.1</div></td></tr><tr><td><div>127.0.0.1</div></td></tr><tr><td><div>isis.biologie.hu-berlin.de</div></td></tr></table></div></td></tr><tr><td style="font-weight:bold;vertical-align:top;">web2py_version</td><td style="vertical-align:top;">:</td><td><div>2.8.2-stable+timestamp.2013.11.28.13.54.07</div></td></tr></table></div></td></tr><tr><td style="font-weight:bold;vertical-align:top;">is_https</td><td style="vertical-align:top;">:</td><td><div>False</div></td></tr><tr><td style="font-weight:bold;vertical-align:top;">is_local</td><td style="vertical-align:top;">:</td><td><div>True</div></td></tr><tr><td style="font-weight:bold;vertical-align:top;">is_restful</td><td style="vertical-align:top;">:</td><td><div>False</div></td></tr><tr><td style="font-weight:bold;vertical-align:top;">now</td><td style="vertical-align:top;">:</td><td><div>datetime.datetime(2014, 11, 12, 12, 25, 50, 793034)</div></td></tr><tr><td style="font-weight:bold;vertical-align:top;">url</td><td style="vertical-align:top;">:</td><td><div>/converter</div></td></tr><tr><td style="font-weight:bold;vertical-align:top;">utcnow</td><td style="vertical-align:top;">:</td><td><div>datetime.datetime(2014, 11, 12, 11, 25, 50, 793061)</div></td></tr><tr><td style="font-weight:bold;vertical-align:top;">uuid</td><td style="vertical-align:top;">:</td><td><div>SBtab/127.0.0.1.2014-11-12.12-25-50.2fbcf7aa-c01b-4043-b75a-5bb2213e4ab6</div></td></tr><tr><td style="font-weight:bold;vertical-align:top;">wsgi</td><td style="vertical-align:top;">:</td><td><div>&lt;gluon.main.LazyWSGI object at 0x7f9ecd4a0e50&gt;</div></td></tr></table></div>'
tRp70
sS'frames'
p71
(lp72
(dp73
S'file'
p74
S'/home/tlubitz/web2py/gluon/restricted.py'
p75
sS'dump'
p76
(dp77
S'environment'
p78
S"{'A': <class 'gluon.html.A'>, 'ANY_OF': <class 'gluon.validators.ANY_OF'>, 'Auth': <class 'gluon.tools.Auth'>, 'B': <class 'gluon.html.B'>, 'BEAUTIFY': <class 'gluon.html.BEAUTIFY'>, 'BODY': <class 'gluon.html.BODY'>, 'BR': <class 'gluon.html.BR'>, 'BUTTON': <class 'gluon.html.BUTTON'>, 'CAT': <class 'gluon.html.CAT'>, 'CENTER': <class 'gluon.html.CENTER'>, ...}"
p79
sS'ccode'
p80
S'<code object <module> at 0x7f9ecd4091b0, file "/...lications/SBtab/controllers/default.py", line 11>'
p81
ssS'lnum'
p82
I217
sS'lines'
p83
(dp84
I212
S'    try:'
p85
sI213
S'        if isinstance(code, types.CodeType):'
p86
sI214
S'            ccode = code'
p87
sI215
S'        else:'
p88
sI216
S'            ccode = compile2(code, layer)'
p89
sI217
S'        exec ccode in environment'
p90
sI218
S'    except HTTP:'
p91
sI219
S'        raise'
p92
sI220
S'    except RestrictedError:'
p93
sI221
S'        # do not encapsulate (obfuscate) the original RestrictedError'
p94
ssS'call'
p95
S"(code='# -*- coding: utf-8 -*-\\n# this file is released ...d())\\n\\nresponse._vars=response._caller(converter)\\n', environment={'A': <class 'gluon.html.A'>, 'ANY_OF': <class 'gluon.validators.ANY_OF'>, 'Auth': <class 'gluon.tools.Auth'>, 'B': <class 'gluon.html.B'>, 'BEAUTIFY': <class 'gluon.html.BEAUTIFY'>, 'BODY': <class 'gluon.html.BODY'>, 'BR': <class 'gluon.html.BR'>, 'BUTTON': <class 'gluon.html.BUTTON'>, 'CAT': <class 'gluon.html.CAT'>, 'CENTER': <class 'gluon.html.CENTER'>, ...}, layer='/home/tlubitz/web2py/applications/SBtab/controllers/default.py')"
p96
sS'func'
p97
S'restricted'
p98
sa(dp99
g74
S'/home/tlubitz/web2py/applications/SBtab/controllers/default.py'
p100
sg76
(dp101
S'sbtab2sbml'
p102
S'undefined'
p103
ssg82
I15
sg83
(dp104
I10
S'#########################################################################'
p105
sI11
S'import tablib'
p106
sI12
S'import tablibIO'
p107
sI13
S'import validatorSBtab'
p108
sI14
S'import sbml2sbtab'
p109
sI15
S'import sbtab2sbml'
p110
sI16
S'import libsbml'
p111
sI17
S'import splitTabs'
p112
sI18
S'import tablib.packages.xlrd as xlrd'
p113
sI19
S''
ssg95
S'()'
p114
sg97
S'<module>'
p115
sa(dp116
g74
S'/home/tlubitz/web2py/gluon/custom_import.py'
p117
sg76
(dp118
S'e2'
p119
S'SyntaxError(\'invalid syntax\', (\'applications/SBt...umns_dict[\'!Name\']]).startswith(\'No Name\')::\\n"))'
p120
ssg82
I94
sg83
(dp121
I96
S'            if import_tb:'
p122
sI97
S'                import_tb = None'
p123
sI98
S''
sI89
S'            try:'
p124
sI90
S'                return NATIVE_IMPORTER(name, globals, locals, fromlist, level)'
p125
sI91
S'            except ImportError, e3:'
p126
sI92
S'                raise ImportError, e1, import_tb  # there an import error in the module'
p127
sI93
S'        except Exception, e2:'
p128
sI94
S'            raise e2  # there is an error in the module'
p129
sI95
S'        finally:'
p130
ssg95
S"(name='sbtab2sbml', globals={'A': <class 'gluon.html.A'>, 'ANY_OF': <class 'gluon.validators.ANY_OF'>, 'Auth': <class 'gluon.tools.Auth'>, 'B': <class 'gluon.html.B'>, 'BEAUTIFY': <class 'gluon.html.BEAUTIFY'>, 'BODY': <class 'gluon.html.BODY'>, 'BR': <class 'gluon.html.BR'>, 'BUTTON': <class 'gluon.html.BUTTON'>, 'CAT': <class 'gluon.html.CAT'>, 'CENTER': <class 'gluon.html.CENTER'>, ...}, locals={'A': <class 'gluon.html.A'>, 'ANY_OF': <class 'gluon.validators.ANY_OF'>, 'Auth': <class 'gluon.tools.Auth'>, 'B': <class 'gluon.html.B'>, 'BEAUTIFY': <class 'gluon.html.BEAUTIFY'>, 'BODY': <class 'gluon.html.BODY'>, 'BR': <class 'gluon.html.BR'>, 'BUTTON': <class 'gluon.html.BUTTON'>, 'CAT': <class 'gluon.html.CAT'>, 'CENTER': <class 'gluon.html.CENTER'>, ...}, fromlist=[], level=-1)"
p131
sg97
S'custom_importer'
p132
sasS'pyver'
p133
S'Python 2.7.6: /usr/bin/python (prefix: /usr)'
p134
sS'session'
p135
g69
(S's\td\x00\x00<div><table><tr><td style="font-weight:bold;vertical-align:top;">ex_warning</td><td style="vertical-align:top;">:</td><td><div>None</div></td></tr><tr><td style="font-weight:bold;vertical-align:top;">name2doc</td><td style="vertical-align:top;">:</td><td><div><table><tr><td style="font-weight:bold;vertical-align:top;">BIOMD0000000064_compartment_SBtab.tsv</td><td style="vertical-align:top;">:</td><td><div>BIOMD0000000064</div></td></tr><tr><td style="font-weight:bold;vertical-align:top;">BIOMD0000000064_compound_SBtab.tsv</td><td style="vertical-align:top;">:</td><td><div>BIOMD0000000064</div></td></tr><tr><td style="font-weight:bold;vertical-align:top;">BIOMD0000000064_quantity_SBtab.tsv</td><td style="vertical-align:top;">:</td><td><div>BIOMD0000000064</div></td></tr><tr><td style="font-weight:bold;vertical-align:top;">BIOMD0000000064_reaction_SBtab.tsv</td><td style="vertical-align:top;">:</td><td><div>BIOMD0000000064</div></td></tr></table></div></td></tr><tr><td style="font-weight:bold;vertical-align:top;">sbml_filenames</td><td style="vertical-align:top;">:</td><td><div><table><tr><td><div>BIOMD0000000064.xml</div></td></tr></table></div></td></tr><tr><td style="font-weight:bold;vertical-align:top;">sbmls</td><td style="vertical-align:top;">:</td><td><div><table><tr><td><div>&lt;?xml version=&quot;1.0&quot; encoding=&quot;UTF-8&quot;?&gt;\n&lt;sbml xmlns=&quot;http://www.sbml.org/sbml/level2/version4&quot; level=&quot;2&quot; version=&quot;4&quot;&gt;\n  &lt;model id=&quot;default_id&quot; name=&quot;default_name&quot;&gt;\n    &lt;listOfCompartments&gt;\n      &lt;compartment id=&quot;extracellular&quot; name=&quot;No name given in SBML&quot; size=&quot;1&quot;/&gt;\n      &lt;compartment id=&quot;cytosol&quot; name=&quot;No name given in SBML&quot; size=&quot;1&quot;/&gt;\n    &lt;/listOfCompartments&gt;\n    &lt;listOfSpecies&gt;\n      &lt;species id=&quot;GLCi&quot; name=&quot;Glucose in Cytosol&quot; compartment=&quot;cytosol&quot; initialConcentration=&quot;0.087&quot;/&gt;\n      &lt;species id=&quot;G6P&quot; name=&quot;Glucose 6 Phosphate&quot; compartment=&quot;cytosol&quot; initialConcentration=&quot;2.45&quot;/&gt;\n      &lt;species id=&quot;F6P&quot; name=&quot;Fructose 6 Phosphate&quot; compartment=&quot;cytosol&quot; initialConcentration=&quot;0.62&quot;/&gt;\n      &lt;species id=&quot;F16P&quot; name=&quot;Fructose-1,6 bisphosphate&quot; compartment=&quot;cytosol&quot; initialConcentration=&quot;5.51&quot;/&gt;\n      &lt;species id=&quot;TRIO&quot; name=&quot;Triose-phosphate&quot; compartment=&quot;cytosol&quot; initialConcentration=&quot;0.96&quot;/&gt;\n      &lt;species id=&quot;BPG&quot; name=&quot;1,3-bisphosphoglycerate&quot; compartment=&quot;cytosol&quot; initialConcentration=&quot;0&quot;/&gt;\n      &lt;species id=&quot;P3G&quot; name=&quot;3-phosphoglycerate&quot; compartment=&quot;cytosol&quot; initialConcentration=&quot;0.9&quot;/&gt;\n      &lt;species id=&quot;P2G&quot; name=&quot;2-phosphoglycerate&quot; compartment=&quot;cytosol&quot; initialConcentration=&quot;0.12&quot;/&gt;\n      &lt;species id=&quot;PEP&quot; name=&quot;Phosphoenolpyruvate&quot; compartment=&quot;cytosol&quot; initialConcentration=&quot;0.07&quot;/&gt;\n      &lt;species id=&quot;PYR&quot; name=&quot;Pyruvate&quot; compartment=&quot;cytosol&quot; initialConcentration=&quot;1.85&quot;/&gt;\n      &lt;species id=&quot;ACE&quot; name=&quot;Acetaldehyde&quot; compartment=&quot;cytosol&quot; initialConcentration=&quot;0.17&quot;/&gt;\n      &lt;species id=&quot;P&quot; name=&quot;High energy phosphates&quot; compartment=&quot;cytosol&quot; initialConcentration=&quot;6.31&quot;/&gt;\n      &lt;species id=&quot;NAD&quot; name=&quot;NAD&quot; compartment=&quot;cytosol&quot; initialConcentration=&quot;1.2&quot;/&gt;\n      &lt;species id=&quot;NADH&quot; name=&quot;NADH&quot; compartment=&quot;cytosol&quot; initialConcentration=&quot;0.39&quot;/&gt;\n      &lt;species id=&quot;Glyc&quot; name=&quot;Glycogen&quot; compartment=&quot;cytosol&quot; initialConcentration=&quot;0&quot;/&gt;\n      &lt;species id=&quot;Trh&quot; name=&quot;Trehalose&quot; compartment=&quot;cytosol&quot; initialConcentration=&quot;0&quot;/&gt;\n      &lt;species id=&quot;CO2&quot; name=&quot;CO2&quot; compartment=&quot;cytosol&quot; initialConcentration=&quot;1&quot;/&gt;\n      &lt;species id=&quot;SUCC&quot; name=&quot;Succinate&quot; compartment=&quot;cytosol&quot; initialConcentration=&quot;0&quot;/&gt;\n      &lt;species id=&quot;GLCo&quot; name=&quot;Extracellular Glucose&quot; compartment=&quot;extracellular&quot; initialConcentration=&quot;50&quot;/&gt;\n      &lt;species id=&quot;ETOH&quot; name=&quot;Ethanol&quot; compartment=&quot;cytosol&quot; initialConcentration=&quot;50&quot;/&gt;\n      &lt;species id=&quot;GLY&quot; name=&quot;Glycerol&quot; compartment=&quot;cytosol&quot; initialConcentration=&quot;0.15&quot;/&gt;\n      &lt;species id=&quot;ATP&quot; name=&quot;ATP concentration&quot; compartment=&quot;cytosol&quot; initialConcentration=&quot;0&quot;/&gt;\n      &lt;species id=&quot;ADP&quot; name=&quot;ADP concentration&quot; compartment=&quot;cytosol&quot; initialConcentration=&quot;0&quot;/&gt;\n      &lt;species id=&quot;AMP&quot; name=&quot;AMP concentration&quot; compartment=&quot;cytosol&quot; initialConcentration=&quot;0&quot;/&gt;\n      &lt;species id=&quot;SUM_P&quot; name=&quot;sum of AXP conc&quot; compartment=&quot;cytosol&quot; initialConcentration=&quot;4.1&quot;/&gt;\n      &lt;species id=&quot;F26BP&quot; name=&quot;F2,6P&quot; compartment=&quot;cytosol&quot; initialConcentration=&quot;0.02&quot;/&gt;\n      &lt;species initialConcentration=&quot;1&quot;/&gt;\n    &lt;/listOfSpecies&gt;\n    &lt;listOfParameters&gt;\n      &lt;parameter id=&quot;KmGLKADP&quot; value=&quot;0.23&quot; units=&quot;mM&quot;/&gt;\n      &lt;parameter id=&quot;KmPGIF6P_2&quot; value=&quot;0.3&quot; units=&quot;mM&quot;/&gt;\n      &lt;parameter id=&quot;KGLYCOGEN_3&quot; value=&quot;6&quot; units=&quot;mMpermin&quot;/&gt;\n      &lt;parameter id=&quot;KTREHALOSE&quot; value=&quot;2.4&quot; units=&quot;mMpermin&quot;/&gt;\n      &lt;parameter id=&quot;VmPFK&quot; value=&quot;182.903&quot; units=&quot;mMpermin&quot;/&gt;\n      &lt;parameter id=&quot;KmALDGAPi&quot; value=&quot;10&quot; units=&quot;mM&quot;/&gt;\n      &lt;parameter id=&quot;KmGAPDHNADH&quot; value=&quot;0.06&quot; units=&quot;mM&quot;/&gt;\n      &lt;parameter id=&quot;KmPGKADP&quot; value=&quot;0.2&quot; units=&quot;mM&quot;/&gt;\n      &lt;parameter id=&quot;KmPGMP2G&quot; value=&quot;0.08&quot; units=&quot;mM&quot;/&gt;\n      &lt;parameter id=&quot;KmENOPEP&quot; value=&quot;0.5&quot; units=&quot;mM&quot;/&gt;\n      &lt;parameter id=&quot;KmPYKATP&quot; value=&quot;1.5&quot; units=&quot;mM&quot;/&gt;\n      &lt;parameter id=&quot;KmPDCPYR&quot; value=&quot;4.33&quot; units=&quot;mM&quot;/&gt;\n      &lt;parameter id=&quot;KSUCC&quot; value=&quot;21.4&quot;/&gt;\n      &lt;parameter id=&quot;KmGLTGLCi&quot; value=&quot;1.1918&quot; units=&quot;mM&quot;/&gt;\n      &lt;parameter id=&quot;KiADHETOH&quot; value=&quot;90&quot; units=&quot;mM&quot;/&gt;\n      &lt;parameter id=&quot;KmG3PDHNAD&quot; value=&quot;0.93&quot; units=&quot;mM&quot;/&gt;\n      &lt;parameter id=&quot;KATPASE&quot; value=&quot;33.7&quot; units=&quot;permin&quot;/&gt;\n      &lt;parameter id=&quot;gR&quot; value=&quot;5.12&quot; units=&quot;dimensionless&quot;/&gt;\n      &lt;parameter id=&quot;KmPFKF6P&quot; value=&quot;0.1&quot; units=&quot;mM&quot;/&gt;\n      &lt;parameter id=&quot;KmPFKATP&quot; value=&quot;0.71&quot; units=&quot;mM&quot;/&gt;\n      &lt;parameter id=&quot;Lzero&quot; value=&quot;0.66&quot; units=&quot;dimensionless&quot;/&gt;\n      &lt;parameter id=&quot;CiPFKATP&quot; value=&quot;100&quot; units=&quot;dimensionless&quot;/&gt;\n      &lt;parameter id=&quot;KiPFKATP&quot; value=&quot;0.65&quot; units=&quot;mM&quot;/&gt;\n      &lt;parameter id=&quot;CPFKAMP&quot; value=&quot;0.0845&quot; units=&quot;dimensionless&quot;/&gt;\n      &lt;parameter id=&quot;KPFKAMP&quot; value=&quot;0.0995&quot; units=&quot;mM&quot;/&gt;\n      &lt;parameter id=&quot;CPFKF26BP&quot; value=&quot;0.0174&quot; units=&quot;dimensionless&quot;/&gt;\n      &lt;parameter id=&quot;KPFKF26BP&quot; value=&quot;0.000682&quot; units=&quot;mM&quot;/&gt;\n      &lt;parameter id=&quot;CPFKF16BP&quot; value=&quot;0.397&quot; units=&quot;dimensionless&quot;/&gt;\n      &lt;parameter id=&quot;KPFKF16BP&quot; value=&quot;0.111&quot; units=&quot;mM&quot;/&gt;\n      &lt;parameter id=&quot;CPFKATP&quot; value=&quot;3&quot; units=&quot;dimensionless&quot;/&gt;\n      &lt;parameter id=&quot;KeqAK&quot; value=&quot;0.45&quot; units=&quot;dimensionless&quot;/&gt;\n      &lt;parameter id=&quot;KeqTPI&quot; value=&quot;0.045&quot; units=&quot;dimensionless&quot;/&gt;\n    &lt;/listOfParameters&gt;\n    &lt;listOfReactions&gt;\n      &lt;reaction id=&quot;vGLK&quot; name=&quot;Hexokinase&quot;&gt;\n        &lt;listOfReactants&gt;\n          &lt;speciesReference species=&quot;GLCi&quot; stoichiometry=&quot;1&quot;/&gt;\n          &lt;speciesReference species=&quot;P&quot; stoichiometry=&quot;1&quot;/&gt;\n        &lt;/listOfReactants&gt;\n        &lt;listOfProducts&gt;\n          &lt;speciesReference species=&quot;G6P&quot; stoichiometry=&quot;1&quot;/&gt;\n        &lt;/listOfProducts&gt;\n      &lt;/reaction&gt;\n      &lt;reaction id=&quot;vPGI&quot; name=&quot;Glucose-6-phosphate isomerase&quot;&gt;\n        &lt;listOfReactants&gt;\n          &lt;speciesReference species=&quot;G6P&quot; stoichiometry=&quot;1&quot;/&gt;\n        &lt;/listOfReactants&gt;\n        &lt;listOfProducts&gt;\n          &lt;speciesReference species=&quot;F6P&quot; stoichiometry=&quot;1&quot;/&gt;\n        &lt;/listOfProducts&gt;\n      &lt;/reaction&gt;\n      &lt;reaction id=&quot;vGLYCO&quot; name=&quot;Glycogen synthesis&quot;&gt;\n        &lt;listOfReactants&gt;\n          &lt;speciesReference species=&quot;G6P&quot; stoichiometry=&quot;1&quot;/&gt;\n          &lt;speciesReference species=&quot;P&quot; stoichiometry=&quot;1&quot;/&gt;\n        &lt;/listOfReactants&gt;\n        &lt;listOfProducts&gt;\n          &lt;speciesReference species=&quot;Glyc&quot; stoichiometry=&quot;1&quot;/&gt;\n        &lt;/listOfProducts&gt;\n      &lt;/reaction&gt;\n      &lt;reaction id=&quot;vTreha&quot; name=&quot;Trehalose 6-phosphate synthase&quot;&gt;\n        &lt;listOfReactants&gt;\n          &lt;speciesReference species=&quot;G6P&quot; stoichiometry=&quot;2&quot;/&gt;\n          &lt;speciesReference species=&quot;P&quot; stoichiometry=&quot;1&quot;/&gt;\n        &lt;/listOfReactants&gt;\n        &lt;listOfProducts&gt;\n          &lt;speciesReference species=&quot;Trh&quot; stoichiometry=&quot;1&quot;/&gt;\n        &lt;/listOfProducts&gt;\n      &lt;/reaction&gt;\n      &lt;reaction id=&quot;vPFK&quot; name=&quot;Phosphofructokinase&quot;&gt;\n        &lt;listOfReactants&gt;\n          &lt;speciesReference species=&quot;F6P&quot; stoichiometry=&quot;1&quot;/&gt;\n          &lt;speciesReference species=&quot;P&quot; stoichiometry=&quot;1&quot;/&gt;\n        &lt;/listOfReactants&gt;\n        &lt;listOfProducts&gt;\n          &lt;speciesReference species=&quot;F16P&quot; stoichiometry=&quot;1&quot;/&gt;\n        &lt;/listOfProducts&gt;\n      &lt;/reaction&gt;\n      &lt;reaction id=&quot;vALD&quot; name=&quot;Aldolase&quot;&gt;\n        &lt;listOfReactants&gt;\n          &lt;speciesReference species=&quot;F16P&quot; stoichiometry=&quot;1&quot;/&gt;\n        &lt;/listOfReactants&gt;\n        &lt;listOfProducts&gt;\n          &lt;speciesReference species=&quot;TRIO&quot; stoichiometry=&quot;2&quot;/&gt;\n        &lt;/listOfProducts&gt;\n      &lt;/reaction&gt;\n      &lt;reaction id=&quot;vGAPDH&quot; name=&quot;Glyceraldehyde 3-phosphate dehydrogenase&quot;&gt;\n        &lt;listOfReactants&gt;\n          &lt;speciesReference species=&quot;TRIO&quot; stoichiometry=&quot;1&quot;/&gt;\n          &lt;speciesReference species=&quot;NAD&quot; stoichiometry=&quot;1&quot;/&gt;\n        &lt;/listOfReactants&gt;\n        &lt;listOfProducts&gt;\n          &lt;speciesReference species=&quot;BPG&quot; stoichiometry=&quot;1&quot;/&gt;\n          &lt;speciesReference species=&quot;NADH&quot; stoichiometry=&quot;1&quot;/&gt;\n        &lt;/listOfProducts&gt;\n      &lt;/reaction&gt;\n      &lt;reaction id=&quot;vPGK&quot; name=&quot;Phosphoglycerate kinase&quot;&gt;\n        &lt;listOfReactants&gt;\n          &lt;speciesReference species=&quot;BPG&quot; stoichiometry=&quot;1&quot;/&gt;\n        &lt;/listOfReactants&gt;\n        &lt;listOfProducts&gt;\n          &lt;speciesReference species=&quot;P3G&quot; stoichiometry=&quot;1&quot;/&gt;\n          &lt;speciesReference species=&quot;P&quot; stoichiometry=&quot;1&quot;/&gt;\n        &lt;/listOfProducts&gt;\n      &lt;/reaction&gt;\n      &lt;reaction id=&quot;vPGM&quot; name=&quot;Phosphoglycerate mutase&quot;&gt;\n        &lt;listOfReactants&gt;\n          &lt;speciesReference species=&quot;P3G&quot; stoichiometry=&quot;1&quot;/&gt;\n        &lt;/listOfReactants&gt;\n        &lt;listOfProducts&gt;\n          &lt;speciesReference species=&quot;P2G&quot; stoichiometry=&quot;1&quot;/&gt;\n        &lt;/listOfProducts&gt;\n      &lt;/reaction&gt;\n      &lt;reaction id=&quot;vENO&quot; name=&quot;Enolase&quot;&gt;\n        &lt;listOfReactants&gt;\n          &lt;speciesReference species=&quot;P2G&quot; stoichiometry=&quot;1&quot;/&gt;\n        &lt;/listOfReactants&gt;\n        &lt;listOfProducts&gt;\n          &lt;speciesReference species=&quot;PEP&quot; stoichiometry=&quot;1&quot;/&gt;\n        &lt;/listOfProducts&gt;\n      &lt;/reaction&gt;\n      &lt;reaction id=&quot;vPYK&quot; name=&quot;Pyruvate kinase&quot;&gt;\n        &lt;listOfReactants&gt;\n          &lt;speciesReference species=&quot;PEP&quot; stoichiometry=&quot;1&quot;/&gt;\n        &lt;/listOfReactants&gt;\n        &lt;listOfProducts&gt;\n          &lt;speciesReference species=&quot;PYR&quot; stoichiometry=&quot;1&quot;/&gt;\n          &lt;speciesReference species=&quot;P&quot; stoichiometry=&quot;1&quot;/&gt;\n        &lt;/listOfProducts&gt;\n      &lt;/reaction&gt;\n      &lt;reaction id=&quot;vPDC&quot; name=&quot;Pyruvate decarboxylase&quot;&gt;\n        &lt;listOfReactants&gt;\n          &lt;speciesReference species=&quot;PYR&quot; stoichiometry=&quot;1&quot;/&gt;\n        &lt;/listOfReactants&gt;\n        &lt;listOfProducts&gt;\n          &lt;speciesReference species=&quot;ACE&quot; stoichiometry=&quot;1&quot;/&gt;\n          &lt;speciesReference species=&quot;CO2&quot; stoichiometry=&quot;1&quot;/&gt;\n        &lt;/listOfProducts&gt;\n      &lt;/reaction&gt;\n      &lt;reaction id=&quot;vSUC&quot; name=&quot;Succinate synthesis&quot;&gt;\n        &lt;listOfReactants&gt;\n          &lt;speciesReference species=&quot;ACE&quot; stoichiometry=&quot;2&quot;/&gt;\n          &lt;speciesReference species=&quot;NAD&quot; stoichiometry=&quot;3&quot;/&gt;\n          &lt;speciesReference species=&quot;P&quot; stoichiometry=&quot;4&quot;/&gt;\n        &lt;/listOfReactants&gt;\n        &lt;listOfProducts&gt;\n          &lt;speciesReference species=&quot;NADH&quot; stoichiometry=&quot;3&quot;/&gt;\n          &lt;speciesReference species=&quot;SUCC&quot; stoichiometry=&quot;1&quot;/&gt;\n        &lt;/listOfProducts&gt;\n      &lt;/reaction&gt;\n      &lt;reaction id=&quot;vGLT&quot; name=&quot;Glucose transport&quot;&gt;\n        &lt;listOfReactants&gt;\n          &lt;speciesReference species=&quot;GLCo&quot; stoichiometry=&quot;1&quot;/&gt;\n        &lt;/listOfReactants&gt;\n        &lt;listOfProducts&gt;\n          &lt;speciesReference species=&quot;GLCi&quot; stoichiometry=&quot;1&quot;/&gt;\n        &lt;/listOfProducts&gt;\n      &lt;/reaction&gt;\n      &lt;reaction id=&quot;vADH&quot; name=&quot;Alcohol dehydrogenase&quot;&gt;\n        &lt;listOfReactants&gt;\n          &lt;speciesReference species=&quot;ACE&quot; stoichiometry=&quot;1&quot;/&gt;\n          &lt;speciesReference species=&quot;NADH&quot; stoichiometry=&quot;1&quot;/&gt;\n        &lt;/listOfReactants&gt;\n        &lt;listOfProducts&gt;\n          &lt;speciesReference species=&quot;NAD&quot; stoichiometry=&quot;1&quot;/&gt;\n          &lt;speciesReference species=&quot;ETOH&quot; stoichiometry=&quot;1&quot;/&gt;\n        &lt;/listOfProducts&gt;\n      &lt;/reaction&gt;\n      &lt;reaction id=&quot;vG3PDH&quot; name=&quot;Glycerol 3-phosphate dehydrogenase&quot;&gt;\n        &lt;listOfReactants&gt;\n          &lt;speciesReference species=&quot;TRIO&quot; stoichiometry=&quot;1&quot;/&gt;\n          &lt;speciesReference species=&quot;NADH&quot; stoichiometry=&quot;1&quot;/&gt;\n        &lt;/listOfReactants&gt;\n        &lt;listOfProducts&gt;\n          &lt;speciesReference species=&quot;NAD&quot; stoichiometry=&quot;1&quot;/&gt;\n          &lt;speciesReference species=&quot;GLY&quot; stoichiometry=&quot;1&quot;/&gt;\n        &lt;/listOfProducts&gt;\n      &lt;/reaction&gt;\n      &lt;reaction id=&quot;vATP&quot; name=&quot;ATPase activity&quot;&gt;\n        &lt;listOfReactants&gt;\n          &lt;speciesReference species=&quot;P&quot; stoichiometry=&quot;1&quot;/&gt;\n        &lt;/listOfReactants&gt;\n        &lt;listOfProducts&gt;\n          &lt;speciesReference stoichiometry=&quot;1&quot;/&gt;\n        &lt;/listOfProducts&gt;\n      &lt;/reaction&gt;\n    &lt;/listOfReactions&gt;\n  &lt;/model&gt;\n&lt;/sbml&gt;\n</div></td></tr></table></div></td></tr><tr><td style="font-weight:bold;vertical-align:top;">sbtab_docnames</td><td style="vertical-align:top;">:</td><td><div><table><tr><td><div>BIOMD0000000064</div></td></tr><tr><td><div>BIOMD0000000064</div></td></tr><tr><td><div>BIOMD0000000064</div></td></tr><tr><td><div>BIOMD0000000064</div></td></tr></table></div></td></tr><tr><td style="font-weight:bold;vertical-align:top;">sbtab_filenames</td><td style="vertical-align:top;">:</td><td><div><table><tr><td><div>BIOMD0000000064_reaction_SBtab.tsv</div></td></tr><tr><td><div>BIOMD0000000064_compound_SBtab.tsv</div></td></tr><tr><td><div>BIOMD0000000064_compartment_SBtab.tsv</div></td></tr><tr><td><div>BIOMD0000000064_quantity_SBtab.tsv</div></td></tr></table></div></td></tr><tr><td style="font-weight:bold;vertical-align:top;">sbtab_types</td><td style="vertical-align:top;">:</td><td><div><table><tr><td><div>reaction</div></td></tr><tr><td><div>compound</div></td></tr><tr><td><div>compartment</div></td></tr><tr><td><div>quantity</div></td></tr></table></div></td></tr><tr><td style="font-weight:bold;vertical-align:top;">sbtabs</td><td style="vertical-align:top;">:</td><td><div><table><tr><td><div>!!SBtab Version &quot;0.8&quot; Document=&quot;BIOMD0000000064&quot; TableType=&quot;Reaction&quot; TableName=&quot;Reaction&quot;\n!Reaction\t!Name\t!SumFormula\t!Location\t!Modifier\t!KineticLaw\t!SBOTerm\t!IsReversible\nvGLK\tHexokinase\tGLCi + P &lt;=&gt; G6P\tNo compartment given in SBML\tATP|ADP\tNo kinetic law given in SBML\tNo SBOterm set in SBML.\tTrue\nvPGI\tGlucose-6-phosphate isomerase\tG6P &lt;=&gt; F6P\tNo compartment given in SBML\t\tNo kinetic law given in SBML\tNo SBOterm set in SBML.\tTrue\nvGLYCO\tGlycogen synthesis\tG6P + P &lt;=&gt; Glyc\tNo compartment given in SBML\t\tNo kinetic law given in SBML\tNo SBOterm set in SBML.\tFalse\nvTreha\tTrehalose 6-phosphate synthase\t2 G6P + P &lt;=&gt; Trh\tNo compartment given in SBML\t\tNo kinetic law given in SBML\tNo SBOterm set in SBML.\tFalse\nvPFK\tPhosphofructokinase\tF6P + P &lt;=&gt; F16P\tNo compartment given in SBML\tAMP|ATP|F26BP\tNo kinetic law given in SBML\tNo SBOterm set in SBML.\tFalse\nvALD\tAldolase\tF16P &lt;=&gt; 2 TRIO\tNo compartment given in SBML\t\tNo kinetic law given in SBML\tNo SBOterm set in SBML.\tTrue\nvGAPDH\tGlyceraldehyde 3-phosphate dehydrogenase\tTRIO + NAD &lt;=&gt; BPG + NADH\tNo compartment given in SBML\t\tNo kinetic law given in SBML\tNo SBOterm set in SBML.\tTrue\nvPGK\tPhosphoglycerate kinase\tBPG &lt;=&gt; P3G + P\tNo compartment given in SBML\tATP|ADP\tNo kinetic law given in SBML\tNo SBOterm set in SBML.\tTrue\nvPGM\tPhosphoglycerate mutase\tP3G &lt;=&gt; P2G\tNo compartment given in SBML\t\tNo kinetic law given in SBML\tNo SBOterm set in SBML.\tTrue\nvENO\tEnolase\tP2G &lt;=&gt; PEP\tNo compartment given in SBML\t\tNo kinetic law given in SBML\tNo SBOterm set in SBML.\tTrue\nvPYK\tPyruvate kinase\tPEP &lt;=&gt; PYR + P\tNo compartment given in SBML\tATP|ADP\tNo kinetic law given in SBML\tNo SBOterm set in SBML.\tTrue\nvPDC\tPyruvate decarboxylase\tPYR &lt;=&gt; ACE + CO2\tNo compartment given in SBML\t\tNo kinetic law given in SBML\tNo SBOterm set in SBML.\tFalse\nvSUC\tSuccinate synthesis\t2 ACE + 3 NAD + 4 P &lt;=&gt; 3 NADH + SUCC\tNo compartment given in SBML\t\tNo kinetic law given in SBML\tNo SBOterm set in SBML.\tFalse\nvGLT\tGlucose transport\tGLCo &lt;=&gt; GLCi\tNo compartment given in SBML\t\tNo kinetic law given in SBML\tNo SBOterm set in SBML.\tTrue\nvADH\tAlcohol dehydrogenase\tACE + NADH &lt;=&gt; NAD + ETOH\tNo compartment given in SBML\t\tNo kinetic law given in SBML\tNo SBOterm set in SBML.\tTrue\nvG3PDH\tGlycerol 3-phosphate dehydrogenase\tTRIO + NADH &lt;=&gt; NAD + GLY\tNo compartment given in SBML\t\tNo kinetic law given in SBML\tNo SBOterm set in SBML.\tFalse\nvATP\tATPase activity\tP &lt;=&gt; \tNo compartment given in SBML\tATP\tNo kinetic law given in SBML\tNo SBOterm set in SBML.\tTrue\n</div></td></tr><tr><td><div>!!SBtab Version &quot;0.8&quot; Document=&quot;BIOMD0000000064&quot; TableType=&quot;Compound&quot; TableName=&quot;Compound&quot;\n!Compound\t!Name\t!Location\t!Charge\t!IsConstant\t!SBOTerm\t!InitialConcentration\nGLCi\tGlucose in Cytosol\tcytosol\t0\tFalse\tNo SBO term set in SBML.\t0.087\nG6P\tGlucose 6 Phosphate\tcytosol\t0\tFalse\tNo SBO term set in SBML.\t2.45\nF6P\tFructose 6 Phosphate\tcytosol\t0\tFalse\tNo SBO term set in SBML.\t0.62\nF16P\tFructose-1,6 bisphosphate\tcytosol\t0\tFalse\tNo SBO term set in SBML.\t5.51\nTRIO\tTriose-phosphate\tcytosol\t0\tFalse\tNo SBO term set in SBML.\t0.96\nBPG\t1,3-bisphosphoglycerate\tcytosol\t0\tFalse\tNo SBO term set in SBML.\t0.0\nP3G\t3-phosphoglycerate\tcytosol\t0\tFalse\tNo SBO term set in SBML.\t0.9\nP2G\t2-phosphoglycerate\tcytosol\t0\tFalse\tNo SBO term set in SBML.\t0.12\nPEP\tPhosphoenolpyruvate\tcytosol\t0\tFalse\tNo SBO term set in SBML.\t0.07\nPYR\tPyruvate\tcytosol\t0\tFalse\tNo SBO term set in SBML.\t1.85\nACE\tAcetaldehyde\tcytosol\t0\tFalse\tNo SBO term set in SBML.\t0.17\nP\tHigh energy phosphates\tcytosol\t0\tFalse\tNo SBO term set in SBML.\t6.31\nNAD\tNAD\tcytosol\t0\tFalse\tNo SBO term set in SBML.\t1.2\nNADH\tNADH\tcytosol\t0\tFalse\tNo SBO term set in SBML.\t0.39\nGlyc\tGlycogen\tcytosol\t0\tFalse\tNo SBO term set in SBML.\t0.0\nTrh\tTrehalose\tcytosol\t0\tFalse\tNo SBO term set in SBML.\t0.0\nCO2\tCO2\tcytosol\t0\tFalse\tNo SBO term set in SBML.\t1.0\nSUCC\tSuccinate\tcytosol\t0\tFalse\tNo SBO term set in SBML.\t0.0\nGLCo\tExtracellular Glucose\textracellular\t0\tFalse\tNo SBO term set in SBML.\t50.0\nETOH\tEthanol\tcytosol\t0\tFalse\tNo SBO term set in SBML.\t50.0\nGLY\tGlycerol\tcytosol\t0\tFalse\tNo SBO term set in SBML.\t0.15\nATP\tATP concentration\tcytosol\t0\tFalse\tNo SBO term set in SBML.\t0.0\nADP\tADP concentration\tcytosol\t0\tFalse\tNo SBO term set in SBML.\t0.0\nAMP\tAMP concentration\tcytosol\t0\tFalse\tNo SBO term set in SBML.\t0.0\nSUM_P\tsum of AXP conc\tcytosol\t0\tTrue\tNo SBO term set in SBML.\t4.1\nF26BP\tF2,6P\tcytosol\t0\tTrue\tNo SBO term set in SBML.\t0.02\n</div></td></tr><tr><td><div>!!SBtab Version &quot;0.8&quot; Document=&quot;BIOMD0000000064&quot; TableType=&quot;Compartment&quot; TableName=&quot;Compartment&quot;\n!Compartment\t!Name\t!Size\t!Unit\t!SBOTerm\nextracellular\tNo name given in SBML\t1.0\t\tNo SBO Term set in SBML.\ncytosol\tNo name given in SBML\t1.0\t\tNo SBO Term set in SBML.\n</div></td></tr><tr><td><div>!!SBtab Version &quot;0.8&quot; Document=&quot;BIOMD0000000064&quot; TableType=&quot;Quantity&quot; TableName=&quot;Quantity&quot;\n!Quantity\t!SBML:parameter:id\t!Value\t!Unit\t!Description\nKmGLKADP_vGLK\tKmGLKADP\t0.23\tmM\tlocal parameter\t\nKmPGIF6P_2_vPGI\tKmPGIF6P_2\t0.3\tmM\tlocal parameter\t\nKGLYCOGEN_3_vGLYCO\tKGLYCOGEN_3\t6.0\tmMpermin\tlocal parameter\t\nKTREHALOSE_vTreha\tKTREHALOSE\t2.4\tmMpermin\tlocal parameter\t\nVmPFK_vPFK\tVmPFK\t182.903\tmMpermin\tlocal parameter\t\nKmALDGAPi_vALD\tKmALDGAPi\t10.0\tmM\tlocal parameter\t\nKmGAPDHNADH_vGAPDH\tKmGAPDHNADH\t0.06\tmM\tlocal parameter\t\nKmPGKADP_vPGK\tKmPGKADP\t0.2\tmM\tlocal parameter\t\nKmPGMP2G_vPGM\tKmPGMP2G\t0.08\tmM\tlocal parameter\t\nKmENOPEP_vENO\tKmENOPEP\t0.5\tmM\tlocal parameter\t\nKmPYKATP_vPYK\tKmPYKATP\t1.5\tmM\tlocal parameter\t\nKmPDCPYR_vPDC\tKmPDCPYR\t4.33\tmM\tlocal parameter\t\nKSUCC_vSUC\tKSUCC\t21.4\t\tlocal parameter\t\nKmGLTGLCi_vGLT\tKmGLTGLCi\t1.1918\tmM\tlocal parameter\t\nKiADHETOH_vADH\tKiADHETOH\t90.0\tmM\tlocal parameter\t\nKmG3PDHNAD_vG3PDH\tKmG3PDHNAD\t0.93\tmM\tlocal parameter\t\nKATPASE_vATP\tKATPASE\t33.7\tpermin\tlocal parameter\t\ngR\tgR\t5.12\tdimensionless\tglobal parameter\t\nKmPFKF6P\tKmPFKF6P\t0.1\tmM\tglobal parameter\t\nKmPFKATP\tKmPFKATP\t0.71\tmM\tglobal parameter\t\nLzero\tLzero\t0.66\tdimensionless\tglobal parameter\t\nCiPFKATP\tCiPFKATP\t100.0\tdimensionless\tglobal parameter\t\nKiPFKATP\tKiPFKATP\t0.65\tmM\tglobal parameter\t\nCPFKAMP\tCPFKAMP\t0.0845\tdimensionless\tglobal parameter\t\nKPFKAMP\tKPFKAMP\t0.0995\tmM\tglobal parameter\t\nCPFKF26BP\tCPFKF26BP\t0.0174\tdimensionless\tglobal parameter\t\nKPFKF26BP\tKPFKF26BP\t0.000682\tmM\tglobal parameter\t\nCPFKF16BP\tCPFKF16BP\t0.397\tdimensionless\tglobal parameter\t\nKPFKF16BP\tKPFKF16BP\t0.111\tmM\tglobal parameter\t\nCPFKATP\tCPFKATP\t3.0\tdimensionless\tglobal parameter\t\nKeqAK\tKeqAK\t0.45\tdimensionless\tglobal parameter\t\nKeqTPI\tKeqTPI\t0.045\tdimensionless\tglobal parameter\t\n</div></td></tr></table></div></td></tr><tr><td style="font-weight:bold;vertical-align:top;">todeletename</td><td style="vertical-align:top;">:</td><td><div><table><tr><td><div>BIOMD0000000064_reaction_SBtab.tsv</div></td></tr><tr><td><div>BIOMD0000000064_compound_SBtab.tsv</div></td></tr><tr><td><div>BIOMD0000000064_compartment_SBtab.tsv</div></td></tr><tr><td><div>BIOMD0000000064_quantity_SBtab.tsv</div></td></tr></table></div></td></tr></table></div>'
tRp136
sS'etype'
p137
S"<type 'exceptions.SyntaxError'>"
p138
sS'date'
p139
S'Wed Nov 12 12:25:50 2014'
p140
sS'response'
p141
g69
(S's\xa61\x00\x00<div><table><tr><td style="font-weight:bold;vertical-align:top;">body</td><td style="vertical-align:top;">:</td><td><div>&lt;cStringIO.StringO object at 0x7f9ecd5baa08&gt;</div></td></tr><tr><td style="font-weight:bold;vertical-align:top;">cookies</td><td style="vertical-align:top;">:</td><td><div><table><tr><td style="font-weight:bold;vertical-align:top;">session_id_sbtab</td><td style="vertical-align:top;">:</td><td><div>127.0.0.1-62b61398-f441-485d-b650-008057b12e90<table><tr><td style="font-weight:bold;vertical-align:top;">comment</td><td style="vertical-align:top;">:</td><td><div></div></td></tr><tr><td style="font-weight:bold;vertical-align:top;">domain</td><td style="vertical-align:top;">:</td><td><div></div></td></tr><tr><td style="font-weight:bold;vertical-align:top;">expires</td><td style="vertical-align:top;">:</td><td><div></div></td></tr><tr><td style="font-weight:bold;vertical-align:top;">httponly</td><td style="vertical-align:top;">:</td><td><div></div></td></tr><tr><td style="font-weight:bold;vertical-align:top;">max-age</td><td style="vertical-align:top;">:</td><td><div></div></td></tr><tr><td style="font-weight:bold;vertical-align:top;">path</td><td style="vertical-align:top;">:</td><td><div>/</div></td></tr><tr><td style="font-weight:bold;vertical-align:top;">secure</td><td style="vertical-align:top;">:</td><td><div></div></td></tr><tr><td style="font-weight:bold;vertical-align:top;">version</td><td style="vertical-align:top;">:</td><td><div></div></td></tr></table></div></td></tr></table></div></td></tr><tr><td style="font-weight:bold;vertical-align:top;">delimiters</td><td style="vertical-align:top;">:</td><td><div><table><tr><td><div>{{</div></td></tr><tr><td><div>}}</div></td></tr></table></div></td></tr><tr><td style="font-weight:bold;vertical-align:top;">files</td><td style="vertical-align:top;">:</td><td><div><table></table></div></td></tr><tr><td style="font-weight:bold;vertical-align:top;">flash</td><td style="vertical-align:top;">:</td><td><div></div></td></tr><tr><td style="font-weight:bold;vertical-align:top;">generic_patterns</td><td style="vertical-align:top;">:</td><td><div><table><tr><td><div>*</div></td></tr></table></div></td></tr><tr><td style="font-weight:bold;vertical-align:top;">google_analytics_id</td><td style="vertical-align:top;">:</td><td><div>None</div></td></tr><tr><td style="font-weight:bold;vertical-align:top;">headers</td><td style="vertical-align:top;">:</td><td><div><table><tr><td style="font-weight:bold;vertical-align:top;">X-Powered-By</td><td style="vertical-align:top;">:</td><td><div>web2py</div></td></tr></table></div></td></tr><tr><td style="font-weight:bold;vertical-align:top;">logo</td><td style="vertical-align:top;">:</td><td><div><a class="brand" data-w2p_disable_with="default" href="http://www.web2py.com/"><b>web<span>2</span>py</b>&trade;&nbsp;</a></div></td></tr><tr><td style="font-weight:bold;vertical-align:top;">menu</td><td style="vertical-align:top;">:</td><td><div><table><tr><td><div><table><tr><td><div>Home</div></td></tr><tr><td><div>False</div></td></tr><tr><td><div>/</div></td></tr><tr><td><div><table></table></div></td></tr></table></div></td></tr><tr><td><div><table><tr><td><div><span class="highlighted">web2py</span></div></td></tr><tr><td><div>False</div></td></tr><tr><td><div>http://web2py.com</div></td></tr><tr><td><div><table><tr><td><div><table><tr><td><div>My Sites</div></td></tr><tr><td><div>False</div></td></tr><tr><td><div>/admin/site</div></td></tr></table></div></td></tr><tr><td><div><table><tr><td><div>This App</div></td></tr><tr><td><div>False</div></td></tr><tr><td><div>/admin/design/SBtab</div></td></tr><tr><td><div>[(&lt;lazyT &#x27;Controller&#x27;&gt;, False, &#x27;/admin/edit/SBtab/controllers/default.py&#x27;), (&lt;lazyT &#x27;View&#x27;&gt;, False, &#x27;/admin/edit/SBtab/views/default/converter.html&#x27;), (&lt;lazyT &#x27;Layout&#x27;&gt;, False, &#x27;/admin/edit/SBtab/views/layout.html&#x27;), (&lt;lazyT &#x27;Stylesheet&#x27;&gt;, False, &#x27;/admin/edit/SBtab/static/css/web2py.css&#x27;), (&lt;lazyT &#x27;DB Model&#x27;&gt;, False, &#x27;/admin/edit/SBtab/models/db.py&#x27;), (&lt;lazyT &#x27;Menu Model&#x27;&gt;, False, &#x27;/admin/edit/SBtab/models/menu.py&#x27;), (&lt;lazyT &#x27;Database&#x27;&gt;, False, &#x27;/appadmin&#x27;), (&lt;lazyT &#x27;Errors&#x27;&gt;, False, &#x27;/admin/errors/SBtab&#x27;), (&lt;lazyT &#x27;About&#x27;&gt;, False, &#x27;/admin/about/SBtab&#x27;)]</div></td></tr></table></div></td></tr><tr><td><div><table><tr><td><div>web2py.com</div></td></tr><tr><td><div>False</div></td></tr><tr><td><div>http://www.web2py.com</div></td></tr><tr><td><div>[(&lt;lazyT &#x27;Download&#x27;&gt;, False, &#x27;http://www.web2py.com/examples/default/download&#x27;), (&lt;lazyT &#x27;Support&#x27;&gt;, False, &#x27;http://www.web2py.com/examples/default/support&#x27;), (&lt;lazyT &#x27;Demo&#x27;&gt;, False, &#x27;http://web2py.com/demo_admin&#x27;), (&lt;lazyT &#x27;Quick Examples&#x27;&gt;, False, &#x27;http://web2py.com/examples/default/examples&#x27;), (&lt;lazyT &#x27;FAQ&#x27;&gt;, False, &#x27;http://web2py.com/AlterEgo&#x27;), (&lt;lazyT &#x27;Videos&#x27;&gt;, False, &#x27;http://www.web2py.com/examples/default/videos/&#x27;), (&lt;lazyT &#x27;Free Applications&#x27;&gt;, False, &#x27;http://web2py.com/appliances&#x27;), (&lt;lazyT &#x27;Plugins&#x27;&gt;, False, &#x27;http://web2py.com/plugins&#x27;), (&lt;lazyT &#x27;Layouts&#x27;&gt;, False, &#x27;http://web2py.com/layouts&#x27;), (&lt;lazyT &#x27;Recipes&#x27;&gt;, False, &#x27;http://web2pyslices.com/&#x27;), (&lt;lazyT &#x27;Semantic&#x27;&gt;, False, &#x27;http://web2py.com/semantic&#x27;)]</div></td></tr></table></div></td></tr><tr><td><div><table><tr><td><div>Documentation</div></td></tr><tr><td><div>False</div></td></tr><tr><td><div>http://www.web2py.com/book</div></td></tr><tr><td><div>[(&lt;lazyT &#x27;Preface&#x27;&gt;, False, &#x27;http://www.web2py.com/book/default/chapter/00&#x27;), (&lt;lazyT &#x27;Introduction&#x27;&gt;, False, &#x27;http://www.web2py.com/book/default/chapter/01&#x27;), (&lt;lazyT &#x27;Python&#x27;&gt;, False, &#x27;http://www.web2py.com/book/default/chapter/02&#x27;), (&lt;lazyT &#x27;Overview&#x27;&gt;, False, &#x27;http://www.web2py.com/book/default/chapter/03&#x27;), (&lt;lazyT &#x27;The Core&#x27;&gt;, False, &#x27;http://www.web2py.com/book/default/chapter/04&#x27;), (&lt;lazyT &#x27;The Views&#x27;&gt;, False, &#x27;http://www.web2py.com/book/default/chapter/05&#x27;), (&lt;lazyT &#x27;Database&#x27;&gt;, False, &#x27;http://www.web2py.com/book/default/chapter/06&#x27;), (&lt;lazyT &#x27;Forms and Validators&#x27;&gt;, False, &#x27;http://www.web2py.com/book/default/chapter/07&#x27;), (&lt;lazyT &#x27;Email and SMS&#x27;&gt;, False, &#x27;http://www.web2py.com/book/default/chapter/08&#x27;), (&lt;lazyT &#x27;Access Control&#x27;&gt;, False, &#x27;http://www.web2py.com/book/default/chapter/09&#x27;), (&lt;lazyT &#x27;Services&#x27;&gt;, False, &#x27;http://www.web2py.com/book/default/chapter/10&#x27;), (&lt;lazyT &#x27;Ajax Recipes&#x27;&gt;, False, &#x27;http://www.web2py.com/book/default/chapter/11&#x27;), (&lt;lazyT &#x27;Components and Plugins&#x27;&gt;, False, &#x27;http://www.web2py.com/book/default/chapter/12&#x27;), (&lt;lazyT &#x27;Deployment Recipes&#x27;&gt;, False, &#x27;http://www.web2py.com/book/default/chapter/13&#x27;), (&lt;lazyT &#x27;Other Recipes&#x27;&gt;, False, &#x27;http://www.web2py.com/book/default/chapter/14&#x27;), (&lt;lazyT &#x27;Buy this book&#x27;&gt;, False, &#x27;http://stores.lulu.com/web2py&#x27;)]</div></td></tr></table></div></td></tr><tr><td><div><table><tr><td><div>Community</div></td></tr><tr><td><div>False</div></td></tr><tr><td><div>None</div></td></tr><tr><td><div>[(&lt;lazyT &#x27;Groups&#x27;&gt;, False, &#x27;http://www.web2py.com/examples/default/usergroups&#x27;), (&lt;lazyT &#x27;Twitter&#x27;&gt;, False, &#x27;http://twitter.com/web2py&#x27;), (&lt;lazyT &#x27;Live Chat&#x27;&gt;, False, &#x27;http://webchat.freenode.net/?channels=web2py&#x27;)]</div></td></tr></table></div></td></tr><tr><td><div><table><tr><td><div>Plugins</div></td></tr><tr><td><div>False</div></td></tr><tr><td><div>None</div></td></tr><tr><td><div>[(&#x27;plugin_wiki&#x27;, False, &#x27;http://web2py.com/examples/default/download&#x27;), (&lt;lazyT &#x27;Other Plugins&#x27;&gt;, False, &#x27;http://web2py.com/plugins&#x27;), (&lt;lazyT &#x27;Layout Plugins&#x27;&gt;, False, &#x27;http://web2py.com/layouts&#x27;)]</div></td></tr></table></div></td></tr></table></div></td></tr></table></div></td></tr></table></div></td></tr><tr><td style="font-weight:bold;vertical-align:top;">meta</td><td style="vertical-align:top;">:</td><td><div><table><tr><td style="font-weight:bold;vertical-align:top;">author</td><td style="vertical-align:top;">:</td><td><div>Your Name &lt;you@example.com&gt;</div></td></tr><tr><td style="font-weight:bold;vertical-align:top;">description</td><td style="vertical-align:top;">:</td><td><div>a cool new app</div></td></tr><tr><td style="font-weight:bold;vertical-align:top;">generator</td><td style="vertical-align:top;">:</td><td><div>Web2py Web Framework</div></td></tr><tr><td style="font-weight:bold;vertical-align:top;">keywords</td><td style="vertical-align:top;">:</td><td><div>web2py, python, framework</div></td></tr></table></div></td></tr><tr><td style="font-weight:bold;vertical-align:top;">models_to_run</td><td style="vertical-align:top;">:</td><td><div><table><tr><td><div>^\\w+\\.py$</div></td></tr><tr><td><div>^default/\\w+\\.py$</div></td></tr><tr><td><div>^default/converter/\\w+\\.py$</div></td></tr></table></div></td></tr><tr><td style="font-weight:bold;vertical-align:top;">postprocessing</td><td style="vertical-align:top;">:</td><td><div><table></table></div></td></tr><tr><td style="font-weight:bold;vertical-align:top;">session_client</td><td style="vertical-align:top;">:</td><td><div>127.0.0.1</div></td></tr><tr><td style="font-weight:bold;vertical-align:top;">session_cookie_compression_level</td><td style="vertical-align:top;">:</td><td><div>None</div></td></tr><tr><td style="font-weight:bold;vertical-align:top;">session_cookie_expires</td><td style="vertical-align:top;">:</td><td><div>None</div></td></tr><tr><td style="font-weight:bold;vertical-align:top;">session_cookie_key</td><td style="vertical-align:top;">:</td><td><div>None</div></td></tr><tr><td style="font-weight:bold;vertical-align:top;">session_data_name</td><td style="vertical-align:top;">:</td><td><div>session_data_sbtab</div></td></tr><tr><td style="font-weight:bold;vertical-align:top;">session_file</td><td style="vertical-align:top;">:</td><td><div>&lt;open file &#x27;/home/tlubitz/web2py/applications/SBtab/sessions/127.0.0.1-62b61398-f441-485d-b650-008057b12e90&#x27;, mode &#x27;rb+&#x27; at 0x7f9ecd5f50c0&gt;</div></td></tr><tr><td style="font-weight:bold;vertical-align:top;">session_filename</td><td style="vertical-align:top;">:</td><td><div>/home/tlubitz/web2py/applications/SBtab/sessions/127.0.0.1-62b61398-f441-485d-b650-008057b12e90</div></td></tr><tr><td style="font-weight:bold;vertical-align:top;">session_hash</td><td style="vertical-align:top;">:</td><td><div>ba8d2869e6e19cba440f754a1e08d8ae</div></td></tr><tr><td style="font-weight:bold;vertical-align:top;">session_id</td><td style="vertical-align:top;">:</td><td><div>127.0.0.1-62b61398-f441-485d-b650-008057b12e90</div></td></tr><tr><td style="font-weight:bold;vertical-align:top;">session_id_name</td><td style="vertical-align:top;">:</td><td><div>session_id_sbtab</div></td></tr><tr><td style="font-weight:bold;vertical-align:top;">session_locked</td><td style="vertical-align:top;">:</td><td><div>True</div></td></tr><tr><td style="font-weight:bold;vertical-align:top;">session_masterapp</td><td style="vertical-align:top;">:</td><td><div>SBtab</div></td></tr><tr><td style="font-weight:bold;vertical-align:top;">session_new</td><td style="vertical-align:top;">:</td><td><div>False</div></td></tr><tr><td style="font-weight:bold;vertical-align:top;">session_storage_type</td><td style="vertical-align:top;">:</td><td><div>file</div></td></tr><tr><td style="font-weight:bold;vertical-align:top;">status</td><td style="vertical-align:top;">:</td><td><div>200</div></td></tr><tr><td style="font-weight:bold;vertical-align:top;">subtitle</td><td style="vertical-align:top;">:</td><td><div>customize me!</div></td></tr><tr><td style="font-weight:bold;vertical-align:top;">title</td><td style="vertical-align:top;">:</td><td><div>Sbtab</div></td></tr><tr><td style="font-weight:bold;vertical-align:top;">view</td><td style="vertical-align:top;">:</td><td><div>default/converter.html</div></td></tr></table></div>'
tRp142
sS'locals'
p143
(dp144
S'fromlist'
p145
S'[]'
p146
sS'modules_prefix'
p147
S"'applications.SBtab.modules'"
p148
sS'name'
p149
S"'sbtab2sbml'"
p150
sS'level'
p151
S'-1'
p152
sS'items'
p153
S"['', 'home', 'tlubitz', 'web2py', 'applications', 'SBtab']"
p154
sS'base_importer'
p155
S'<built-in function __import__>'
p156
sS'globals'
p157
S"{'A': <class 'gluon.html.A'>, 'ANY_OF': <class 'gluon.validators.ANY_OF'>, 'Auth': <class 'gluon.tools.Auth'>, 'B': <class 'gluon.html.B'>, 'BEAUTIFY': <class 'gluon.html.BEAUTIFY'>, 'BODY': <class 'gluon.html.BODY'>, 'BR': <class 'gluon.html.BR'>, 'BUTTON': <class 'gluon.html.BUTTON'>, 'CAT': <class 'gluon.html.CAT'>, 'CENTER': <class 'gluon.html.CENTER'>, ...}"
p158
sS'result'
p159
S'None'
p160
sS'oname'
p161
S"'sbtab2sbml'"
p162
sS'itemname'
p163
S"'sbtab2sbml'"
p164
sS'import_tb'
p165
S'None'
p166
sg143
S"{'A': <class 'gluon.html.A'>, 'ANY_OF': <class 'gluon.validators.ANY_OF'>, 'Auth': <class 'gluon.tools.Auth'>, 'B': <class 'gluon.html.B'>, 'BEAUTIFY': <class 'gluon.html.BEAUTIFY'>, 'BODY': <class 'gluon.html.BODY'>, 'BR': <class 'gluon.html.BR'>, 'BUTTON': <class 'gluon.html.BUTTON'>, 'CAT': <class 'gluon.html.CAT'>, 'CENTER': <class 'gluon.html.CENTER'>, ...}"
p167
sS'e2'
p168
S'SyntaxError(\'invalid syntax\', (\'applications/SBt...umns_dict[\'!Name\']]).startswith(\'No Name\')::\\n"))'
p169
sssS'traceback'
p170
S'Traceback (most recent call last):\n  File "/home/tlubitz/web2py/gluon/restricted.py", line 217, in restricted\n    exec ccode in environment\n  File "/home/tlubitz/web2py/applications/SBtab/controllers/default.py", line 15, in <module>\n    import sbtab2sbml\n  File "/home/tlubitz/web2py/gluon/custom_import.py", line 94, in custom_importer\n    raise e2  # there is an error in the module\n  File "applications/SBtab/modules/sbtab2sbml.py", line 254\n    if \'!Name\' in sbtab.columns and not row[sbtab.columns_dict[\'!Name\']] == \'\' and not str(row[sbtab.columns_dict[\'!Name\']]).startswith(\'No Name\')::\n                                                                                                                                                   ^\nSyntaxError: invalid syntax\n'
p171
s.