(dp1
S'output'
p2
S"<type 'exceptions.IndentationError'> unexpected indent (sbml2sbtab.py, line 64)"
p3
sS'layer'
p4
S'/home/tlubitz/web2py/applications/SBtab/controllers/default.py'
p5
sS'code'
p6
S'# -*- coding: utf-8 -*-\n# this file is released under public domain and you can use without limitations\n\n#########################################################################\n## This is a sample controller\n## - index is the default action of any application\n## - user is required for authentication and authorization\n## - download is for downloading files uploaded in the db (does streaming)\n## - call exposes all registered services (none by default)\n#########################################################################\nimport tablib\nimport tablibIO\nimport validatorSBtab\nimport sbml2sbtab\nimport sbtab2sbml\nimport libsbml\nimport random\nimport splitTabs\nimport makehtml\nimport tablib.packages.xlrd as xlrd\nimport xlrd\n\ndef index():\n    session.ex_warning = None\n    redirect(URL(\'../../static/introduction.html\'))\n\ndef clearsession():\n    session.sbtabs = []\n    session.sbtab_filenames = []\n    session.sbtab_docnames = []\n    session.sbtab_types = []\n    session.name2doc = {}\n    session.todeletename = []\n    session.sbtab_fileformat = []    \n    session.ex_warning = \'\'\n\n    session.sbmls = []\n    session.sbml_filenames = []\n    session.sbml_fileformat = []\n\n    session.definition_file = []\n    session.definition_file_name = []\n\n    redirect(URL(\'../../static/introduction.html\'))\n\ndef validator():\n    """\n    example action using the internationalization operator T and flash\n    rendered by views/default/index.html or views/generic.html\n\n    if you need a simple wiki simple replace the two lines below with:\n    return auth.wiki()\n    """\n    #response.flash = T("Welcome to web2py!")\n    #session.clear()\n    response.title    = T(\'SBtab - Standardised data tables for Systems Biology\')\n    response.subtitle = T(\'Online Validator\')\n\n    lform = SQLFORM.factory(Field(\'File\', \'upload\',uploadfolder="/tmp", label=\'Upload SBtab file (.csv, .xls)\'))\n\n    #update session lists\n    if lform.process().accepted:\n        response.flash = \'form accepted\'\n        session.ex_warning = None\n        try:\n            FileValidClass = validatorSBtab.ValidateFile(request.vars.File.value,request.vars.File.filename)\n            separator      = FileValidClass.checkseparator(request.vars.File.value)\n            (sbtab_list,types,docs) = splitTabs.checkTabs([request.vars.File.value],request.vars.File.filename,separator=separator)\n            if not session.has_key(\'sbtabs\'):\n                session.sbtabs = [\'\\n\'.join(sbtab_list[0])]\n                session.sbtab_filenames = [request.vars.File.filename[:-4]+\'_\'+types[0]]\n                session.sbtab_fileformat = [request.vars.File.filename[-4:]]\n                session.sbtab_docnames  = [docs[0]]\n                session.sbtab_types     = [types[0]]\n                session.todeletename    = [request.vars.File.filename[:-4]+\'_\'+types[0]]\n                session.name2doc = {}\n                session.name2doc[request.vars.File.filename[:-4]+\'_\'+types[0]] = docs[0]\n                if len(sbtab_list) > 1:\n                    for i,sbtab in enumerate(sbtab_list[1:]):\n                        session.sbtabs.append(\'\\n\'.join(sbtab))\n                        fn = request.vars.File.filename[:-4]+\'_\'+types[i]\n                        if not fn in session.sbtab_filenames:\n                            session.sbtab_filenames.append(fn)\n                            session.todeletename.append(fn)\n                            session.name2doc[fn] = docs[i]\n                        else:\n                            random_number = str(random.randint(0,1000))\n                            session.sbtab_filenames.append(fn+\'_\'+random_number)\n                            session.todeletename.append(fn+\'_\'+random_number)\n                            session.name2doc[fn+\'_\'+random_number] = docs[i]\n                        session.sbtab_fileformat.append(request.vars.File.filename[-4:])\n                        session.sbtab_docnames.append(docs[i])\n                        session.sbtab_types.append(types[i])\n            else:\n                if len(sbtab_list) > 1:\n                    for i,sbtab in enumerate(sbtab_list):\n                        session.sbtabs.append(\'\\n\'.join(sbtab))\n                        fn = request.vars.File.filename[:-4]+\'_\'+types[i]\n                        if not fn in session.sbtab_filenames:\n                            session.sbtab_filenames.append(fn)\n                            session.todeletename.append(fn)\n                            session.name2doc[fn] = docs[i]\n                        else:\n                            random_number = str(random.randint(0,1000))\n                            session.sbtab_filenames.append(fn+\'_\'+random_number)\n                            session.todeletename.append(fn+\'_\'+random_number)\n                            session.name2doc[fn+\'_\'+random_number] = docs[i]\n                        session.sbtab_fileformat.append(request.vars.File.filename[-4:])\n                        session.sbtab_docnames.append(docs[i])\n                        session.sbtab_types.append(types[i])\n                else:\n                    session.sbtabs.append(\'\\n\'.join(sbtab_list[0]))\n                    fn = request.vars.File.filename[:-4]+\'_\'+types[0]\n                    if not fn in session.sbtab_filenames:\n                        session.sbtab_filenames.append(fn)\n                        session.todeletename.append(fn)\n                        session.name2doc[fn] = docs[0]\n                    else:\n                        random_number = str(random.randint(0,1000))\n                        session.sbtab_filenames.append(fn+\'_\'+random_number)\n                        session.todeletename.append(fn+\'_\'+random_number)\n                        session.name2doc[fn+\'_\'+random_number] = docs[0]\n                    session.sbtab_fileformat.append(request.vars.File.filename[-4:])\n                    session.sbtab_docnames.append(docs[0])\n                    session.sbtab_types.append(types[0])\n\n\n                #redirect(URL(\'\'))\n        except:\n            session.ex_warning = \'The file that you uploaded is no valid SBtab file. Please only use .csv or .xls format. If it still does not work out, please consult the SBtab specification.\'\n    elif lform.errors:\n        response.flash = \'form has errors\'\n\n    #pushed validation button\n    if request.vars.validate_button:\n        try:\n            FileValidClass = validatorSBtab.ValidateFile(session.sbtabs[int(request.vars.validate_button)],session.sbtab_filenames[int(request.vars.validate_button)])\n            v_output       = FileValidClass.returnOutput()\n            try: separator      = FileValidClass.checkseparator(session.sbtabs[int(request.vars.validate_button)])\n            except: pass\n            if separator: new_tablib_obj = tablibIO.importSetNew(session.sbtabs[int(request.vars.validate_button)],session.sbtab_filenames[int(request.vars.validate_button)],separator=separator)\n            else:\n                xx_filename = session.sbtab_filenames[int(request.vars.validate_button)]+session.sbtab_fileformat[int(request.vars.validate_button)]\n                new_tablib_obj = tablibIO.importSetNew(session.sbtabs[int(request.vars.validate_button)],xx_filename)\n\n            if new_tablib_obj:\n                if session.definition_file:\n                    TableValidClass = validatorSBtab.ValidateTable(new_tablib_obj,session.sbtab_filenames[int(request.vars.validate_button)],session.definition_file[0],session.definition_file_name[0])\n                    for itemx in TableValidClass.returnOutput():\n                        v_output.append(itemx)\n                else:\n                    TableValidClass = validatorSBtab.ValidateTable(new_tablib_obj,session.sbtab_filenames[int(request.vars.validate_button)])\n                    for itemx in TableValidClass.returnOutput():\n                        v_output.append(itemx)\n            sbtab2val  = session.sbtab_filenames[int(request.vars.validate_button)]\n            #redirect(URL(\'\'))\n            session.ex_warning = None\n        except:\n            session.ex_warning = \'Your file is corrupt. Even too corrupt to be validated. Please remove it and see the SBtab specification to try and create a better SBtab file.\'\n            v_output  = \'\'\n            sbtab2val = \'\'\n    else:\n        v_output  = \'\'\n        sbtab2val = \'\'\n\n    #pushed erase button\n    if request.vars.erase_button:\n        del session.sbtabs[int(request.vars.erase_button)]\n        del session.sbtab_filenames[int(request.vars.erase_button)]\n        del session.sbtab_fileformat[int(request.vars.erase_button)]\n        del session.sbtab_docnames[int(request.vars.erase_button)]\n        del session.sbtab_types[int(request.vars.erase_button)]\n        del session.name2doc[session.todeletename[int(request.vars.erase_button)]]\n        del session.todeletename[int(request.vars.erase_button)]\n        session.ex_warning = None\n        redirect(URL(\'\'))\n\n    return dict(UPL_FORM=lform,SBTAB_LIST=session.sbtabs,NAME_LIST=session.sbtab_filenames,V_OUTPUT=v_output,SBTAB2VAL=sbtab2val,DOC_NAMES=session.sbtab_docnames,NAME2DOC=session.name2doc,EXWARNING=session.ex_warning)\n\ndef converter():\n    response.title = T(\'SBtab - Standardised data tables for Systems Biology\')\n    response.subtitle = T(\'SBML / SBtab Conversion\')\n\n    #Form for SBtab files\n    lform = SQLFORM.factory(Field(\'File\', \'upload\',uploadfolder="/tmp", label=\'Upload SBtab file to convert (.csv, .xls)\'))\n\n    #update session lists\n    if lform.process(formname=\'form_one\').accepted:\n            response.flash = \'form accepted\'\n            try:\n                FileValidClass = validatorSBtab.ValidateFile(request.vars.File.value,request.vars.File.filename)\n                separator      = FileValidClass.checkseparator(request.vars.File.value)            \n                (sbtab_list,types,docs) = splitTabs.checkTabs([request.vars.File.value],request.vars.File.filename,separator=separator)\n                if not session.has_key(\'sbtabs\'):\n                    session.sbtabs = [\'\\n\'.join(sbtab_list[0])]\n                    session.sbtab_filenames = [request.vars.File.filename[:-4]+\'_\'+types[0]]\n                    session.sbtab_fileformat = [request.vars.File.filename[-4:]]\n                    session.sbtab_docnames  = [docs[0]]\n                    session.sbtab_types     = [types[0]]\n                    session.todeletename    = [request.vars.File.filename[:-4]+\'_\'+types[0]]\n                    session.name2doc = {}\n                    session.name2doc[request.vars.File.filename[:-4]+\'_\'+types[0]] = docs[0]\n                    if len(sbtab_list) > 1:\n                        for i,sbtab in enumerate(sbtab_list[1:]):\n                            session.sbtabs.append(\'\\n\'.join(sbtab))\n                            fn = request.vars.File.filename[:-4]+\'_\'+types[i]\n                            if not fn in session.sbtab_filenames:\n                                session.sbtab_filenames.append(fn)\n                                session.todeletename.append(fn)\n                                session.name2doc[fn] = docs[i]\n                            else:\n                                random_number = str(random.randint(0,1000))\n                                session.sbtab_filenames.append(fn+\'_\'+random_number)\n                                session.todeletename.append(fn+\'_\'+random_number)\n                                session.name2doc[fn+\'_\'+random_number] = docs[i]\n                            session.sbtab_fileformat.append(request.vars.File.filename[-4:])\n                            session.sbtab_docnames.append(docs[i])\n                            session.sbtab_types.append(types[i])\n                else:\n                    if len(sbtab_list) > 1:\n                        for i,sbtab in enumerate(sbtab_list):\n                            session.sbtabs.append(\'\\n\'.join(sbtab))\n                            fn = request.vars.File.filename[:-4]+\'_\'+types[i]\n                            if not fn in session.sbtab_filenames:\n                                session.sbtab_filenames.append(fn)\n                                session.todeletename.append(fn)\n                                session.name2doc[fn] = docs[i]\n                            else:\n                                random_number = str(random.randint(0,1000))\n                                session.sbtab_filenames.append(fn+\'_\'+random_number)\n                                session.todeletename.append(fn+\'_\'+random_number)\n                                session.name2doc[fn+\'_\'+random_number] = docs[i]\n                            session.sbtab_fileformat.append(request.vars.File.filename[-4:])\n                            session.sbtab_docnames.append(docs[i])\n                            session.sbtab_types.append(types[i])\n                    else:\n                        session.sbtabs.append(\'\\n\'.join(sbtab_list[0]))\n                        fn = request.vars.File.filename[:-4]+\'_\'+types[0]\n                        if not fn in session.sbtab_filenames:\n                            session.sbtab_filenames.append(fn)\n                            session.todeletename.append(fn)\n                            session.name2doc[fn] = docs[0]\n                        else:\n                            random_number = str(random.randint(0,1000))\n                            session.sbtab_filenames.append(fn+\'_\'+random_number)\n                            session.todeletename.append(fn+\'_\'+random_number)\n                            session.name2doc[fn+\'_\'+random_number] = docs[0]\n                        session.sbtab_fileformat.append(request.vars.File.filename[-4:])\n                        session.sbtab_docnames.append(docs[0])\n                        session.sbtab_types.append(types[0])\n            except:\n                session.ex_warning = \'The file that you uploaded is no SBtab file. Please only use .csv or .xls format. If it still does not work out, please consult the SBtab specification.\'\n    elif lform.errors:\n        response.flash = \'form has errors\'\n\n    # convert sbtab2sbml button is pushed\n    if request.vars.c2sbml_button:\n        try:\n            fn = session.sbtab_filenames[int(request.vars.c2sbml_button)]+session.sbtab_fileformat[int(request.vars.c2sbml_button)]\n            sbtab_document = sbtab2sbml.SBtabDocument(session.sbtabs[int(request.vars.c2sbml_button)],fn)\n            new_sbml       = sbtab_document.makeSBML()\n            if not session.has_key(\'sbmls\'):\n                session.sbmls = [new_sbml]\n                session.sbml_filenames = [session.sbtab_filenames[int(request.vars.c2sbml_button)]+\'_SBML\']\n            else:\n                session.sbmls.append(new_sbml)\n                fn = session.sbtab_filenames[int(request.vars.c2sbml_button)]+\'_SBML\'\n                if not fn in session.sbml_filenames:\n                    session.sbml_filenames.append(fn)\n                else:\n                    random_number = str(random.randint(0,1000))\n                    session.sbml_filenames.append(fn+\'_\'+random_number)\n        except:\n            session.ex_warning = \'The SBtab file could not be converted to SBML. Please check whether you have a valid Reaction SBtab file.\'\n\n    if request.vars.dl_sbtab_button:\n        downloader_sbtab()\n\n    if request.vars.convert_all_button:\n        try:\n            convert_document = session.sbtab_docnames[int(request.vars.convert_all_button)]\n            merged_sbtabs    = []\n            for i,docname in enumerate(session.sbtab_docnames):\n                if docname == convert_document:\n                    merged_sbtabs.append(session.sbtabs[i])\n            sbtab_document = sbtab2sbml.SBtabDocument(merged_sbtabs,\'merged_unknown.tsv\',tabs=2)\n            new_sbml       = sbtab_document.makeSBML()\n            if not session.has_key(\'sbmls\'):\n                session.sbmls = [new_sbml]\n                session.sbml_filenames = [convert_document]\n            else:\n                session.sbmls.append(new_sbml)\n                fn = convert_document\n                if not fn in session.sbml_filenames:\n                    session.sbml_filenames.append(fn)\n                else:\n                    random_number = str(random.randint(0,1000))\n                    session.sbml_filenames.append(fn+\'_\'+random_number)\n        except:\n            session.ex_warning = \'The SBtab file could not be converted to SBML. Please check whether you have a valid Reaction SBtab file.\'\n\n    #Form for SBML files\n    rform = SQLFORM.factory(Field(\'File\', \'upload\',uploadfolder="/tmp", label=\'Upload SBML file to convert (.xml)\'))\n\n    if rform.process(formname=\'form_two\').accepted:\n        response.flash = \'form accepted\'\n        if not session.has_key(\'sbmls\'):\n            session.sbmls = [request.vars.File.value]\n            session.sbml_filenames = [request.vars.File.filename]\n        else:\n            session.sbmls.append(request.vars.File.value)\n            fn = request.vars.File.filename\n            if not fn in session.sbml_filenames:\n                session.sbml_filenames.append(fn)\n            else:\n                random_number = str(random.randint(0,1000))\n                session.sbml_filenames.append(fn+\'_\'+random_number)\n    elif rform.errors:\n        response.flash = \'form has errors\'\n\n    if request.vars.erase_sbml_button:\n        del session.sbmls[int(request.vars.erase_sbml_button)]\n        del session.sbml_filenames[int(request.vars.erase_sbml_button)]\n        session.ex_warning = None\n        redirect(URL(\'\'))\n\n    # convert sbml2sbtab button is pushed\n    if request.vars.c2sbtab_button:\n        try:\n            reader     = libsbml.SBMLReader()\n            sbml_model = reader.readSBMLFromString(session.sbmls[int(request.vars.c2sbtab_button)])\n            ConvSBMLClass = sbml2sbtab.SBMLDocument(sbml_model.getModel(),session.sbml_filenames[int(request.vars.c2sbtab_button)])\n            tab_output    = ConvSBMLClass.makeSBtabs()\n            # append generated SBtabs to session variables\n            for SBtab in tab_output:\n                if not session.has_key(\'sbtabs\'):\n                    session.sbtabs = [SBtab[0]]\n                    session.sbtab_filenames = [session.sbml_filenames[int(request.vars.c2sbtab_button)].rstrip(\'.xml\')+\'_\'+SBtab[1]]\n                    session.sbtab_fileformat = [\'.csv\']\n                    session.sbtab_docnames = [session.sbml_filenames[int(request.vars.c2sbtab_button)].rstrip(\'.xml\')]\n                    session.sbtab_types    = [SBtab[1]]\n                    session.todeletename   = [session.sbml_filenames[int(request.vars.c2sbtab_button)].rstrip(\'.xml\')+\'_\'+SBtab[1]]\n                    session.name2doc = {}\n                    session.name2doc[session.sbml_filenames[int(request.vars.c2sbtab_button)].rstrip(\'.xml\')+\'_\'+SBtab[1]] = session.sbml_filenames[int(request.vars.c2sbtab_button)].rstrip(\'.xml\')\n                else:\n                    session.sbtabs.append(SBtab[0])\n                    fn = session.sbml_filenames[int(request.vars.c2sbtab_button)].rstrip(\'.xml\')+\'_\'+SBtab[1]\n                    if not fn in session.sbtab_filenames:\n                        session.sbtab_filenames.append(fn)\n                        session.todeletename.append(fn)\n                        session.name2doc[fn] = session.sbml_filenames[int(request.vars.c2sbtab_button)].rstrip(\'.xml\')      #needs +\'_\'+SBtab[1]??\n                    else:\n                        random_number = str(random.randint(0,1000))\n                        session.sbtab_filenames.append(fn+\'_\'+random_number)\n                        session.todeletename.append(fn+\'_\'+random_number)\n                        session.name2doc[fn+\'_\'+random_number] = session.sbml_filenames[int(request.vars.c2sbtab_button)].rstrip(\'.xml\')      #needs +\'_\'+SBtab[1]??\n                    session.sbtab_fileformat.append(\'.csv\')\n                    session.sbtab_docnames.append(session.sbml_filenames[int(request.vars.c2sbtab_button)].rstrip(\'.xml\'))\n                    session.sbtab_types.append(SBtab[1])\n        except:\n            session.ex_warning = \'The SBML file could not be converted to SBtab. Please check whether your SBML file is valid.\'\n\n    if request.vars.erase_sbtab_button:\n        del session.sbtabs[int(request.vars.erase_sbtab_button)]\n        del session.sbtab_filenames[int(request.vars.erase_sbtab_button)]\n        del session.sbtab_fileformat[int(request.vars.erase_sbtab_button)]\n        del session.sbtab_docnames[int(request.vars.erase_sbtab_button)]\n        del session.sbtab_types[int(request.vars.erase_sbtab_button)]\n        del session.name2doc[session.todeletename[int(request.vars.erase_sbtab_button)]]\n        del session.todeletename[int(request.vars.erase_sbtab_button)]\n        session.ex_warning = None\n        redirect(URL(\'\'))\n\n    if request.vars.dl_sbml_button:\n        downloader_sbml()\n        \n    return dict(UPL_FORML=lform,UPL_FORMR=rform,SBTAB_LIST=session.sbtabs,SBML_LIST=session.sbmls,NAME_LIST_SBTAB=session.sbtab_filenames,NAME_LIST_SBML=session.sbml_filenames,DOC_NAMES=session.sbtab_docnames,NAME2DOC=session.name2doc,EXWARNING=session.ex_warning,TYPES=session.sbtab_types)\n\n\ndef def_files():\n    \'\'\'\n    upload your own definition SBtab\n    \'\'\'\n    response.title = T(\'SBtab - Standardised data tables for Systems Biology\')\n    response.subtitle = T(\'Upload your own definition files\')\n\n    dform = SQLFORM.factory(Field(\'File\', \'upload\',uploadfolder="/tmp", label=\'Upload definition file (.csv, .tsv)\'))\n\n    #update session lists\n    if dform.process().accepted:\n        response.flash = \'form accepted\'\n        session.definition_file      = [request.vars.File.value]\n        session.definition_file_name = [request.vars.File.filename]\n    elif dform.errors:\n        response.flash = \'form has errors\'\n\n    #pushed erase button\n    if request.vars.erase_def_button:\n        del session.definition_file[int(request.vars.erase_def_button)]\n        del session.definition_file_name[int(request.vars.erase_def_button)]\n        redirect(URL(\'\'))\n\n    return dict(UPL_FORM=dform,DEF_FILE=session.definition_file,DEF_NAME=session.definition_file_name)\n\ndef downloader_sbtab():\n        response.headers[\'Content-Type\'] = \'text/csv\'\n        if not session.sbtab_filenames[int(request.vars.dl_sbtab_button)].endswith(\'.csv\') and not session.sbtab_filenames[int(request.vars.dl_sbtab_button)].endswith(\'.tsv\'):\n            attachment = \'attachment;filename=\' + session.sbtab_filenames[int(request.vars.dl_sbtab_button)]+\'.csv\'\n        else: attachment = \'attachment;filename=\' + session.sbtab_filenames[int(request.vars.dl_sbtab_button)]\n        response.headers[\'Content-Disposition\'] = attachment\n        \n        content = session.sbtabs[int(request.vars.dl_sbtab_button)]\n        raise HTTP(200,str(content),\n                   **{\'Content-Type\':\'text/csv\',\n                      \'Content-Disposition\':attachment + \';\'})\n\ndef downloader_sbml():\n        response.headers[\'Content-Type\'] = \'text/xml\'\n        if not session.sbml_filenames[int(request.vars.dl_sbml_button)].endswith(\'.xml\'):\n            attachment = \'attachment;filename=\' + session.sbml_filenames[int(request.vars.dl_sbml_button)]+\'.xml\'\n        else: attachment = \'attachment;filename=\' + session.sbml_filenames[int(request.vars.dl_sbml_button)]\n        response.headers[\'Content-Disposition\'] = attachment\n        \n        content = session.sbmls[int(request.vars.dl_sbml_button)]\n        raise HTTP(200,str(content),\n                   **{\'Content-Type\':\'text/xml\',\n                      \'Content-Disposition\':attachment + \';\'})\n\ndef show_sbtab():\n    \'\'\'\n    displays a given SBtab file in html\n    \'\'\'\n    sbtab_file = session.sbtabs[int(request.args(0))]\n    file_name  = session.sbtab_filenames[int(request.args(0))]\n    sbtype     = session.sbtab_types[int(request.args(0))]\n\n    try:\n        FileValidClass = validatorSBtab.ValidateFile(sbtab_file,file_name)\n        delimiter      = FileValidClass.checkseparator(sbtab_file)\n    except:\n        delimiter = None\n        \n    try:\n        def_file      = session.definition_file\n        def_file_name = session.definition_file_name\n    except:\n        def_file      = None\n        def_file_name = None\n\n    if delimiter:\n        try: return makehtml.csv2html(sbtab_file,file_name,delimiter,sbtype,def_file,def_file_name)\n        except: return \'There is something wrong with this SBtab file. It cannot be displayed.\'\n    else:\n        try: return show_sbtab_xls(def_file,def_file_name)\n        except: return \'There is something wrong with this SBtab file. It cannot be displayed.\'\n\n\ndef show_sbtab_xls(def_file,def_file_name):\n    \'\'\'\n    displays xls SBtab file\n    \'\'\'\n    xls_sbtab = session.sbtabs[int(request.args(0))]\n    file_name = session.sbtab_filenames[int(request.args(0))]\n    sbtype    = session.sbtab_types[int(request.args(0))]\n\n    return makehtml.xls2html(xls_sbtab,file_name,sbtype,def_file,def_file_name)\n\n\ndef show_sbml():\n    \'\'\'\n    displays a given SBML file\n    \'\'\'\n    return makehtml.xml2html(session.sbmls[int(request.args(0))])\n\ndef user():\n    """\n    exposes:\n    http://..../[app]/default/user/login\n    http://..../[app]/default/user/logout\n    http://..../[app]/default/user/register\n    http://..../[app]/default/user/profile\n    http://..../[app]/default/user/retrieve_password\n    http://..../[app]/default/user/change_password\n    http://..../[app]/default/user/manage_users (requires membership in \n    use @auth.requires_login()\n        @auth.requires_membership(\'group name\')\n        @auth.requires_permission(\'read\',\'table name\',record_id)\n    to decorate functions that need access control\n    """\n    return dict(form=auth())\n\n@cache.action()\ndef download():\n    """\n    allows downloading of uploaded files\n    http://..../[app]/default/download/[filename]\n    """\n    return response.download(request, db)\n\n\ndef call():\n    """\n    exposes services. for example:\n    http://..../[app]/default/call/jsonrpc\n    decorate with @services.jsonrpc the functions to expose\n    supports xml, json, xmlrpc, jsonrpc, amfrpc, rss, csv\n    """\n    return service()\n\n\n@auth.requires_signature()\ndef data():\n    """\n    http://..../[app]/default/data/tables\n    http://..../[app]/default/data/create/[table]\n    http://..../[app]/default/data/read/[table]/[id]\n    http://..../[app]/default/data/update/[table]/[id]\n    http://..../[app]/default/data/delete/[table]/[id]\n    http://..../[app]/default/data/select/[table]\n    http://..../[app]/default/data/search/[table]\n    but URLs must be signed, i.e. linked with\n      A(\'table\',_href=URL(\'data/tables\',user_signature=True))\n    or with the signed load operator\n      LOAD(\'default\',\'data.load\',args=\'tables\',ajax=True,user_signature=True)\n    """\n    return dict(form=crud())\n\nresponse._vars=response._caller(validator)\n'
p7
sS'snapshot'
p8
(dp9
S'exception'
p10
(dp11
S'__getslice__'
p12
S"<method-wrapper '__getslice__' of exceptions.IndentationError object>"
p13
sS'text'
p14
S"'        build an Enzyme SBtab\\n'"
p15
sS'__str__'
p16
S"<method-wrapper '__str__' of exceptions.IndentationError object>"
p17
sS'__reduce__'
p18
S'<built-in method __reduce__ of exceptions.IndentationError object>'
p19
sS'__dict__'
p20
S'{}'
p21
sS'__sizeof__'
p22
S'<built-in method __sizeof__ of exceptions.IndentationError object>'
p23
sS'__init__'
p24
S"<method-wrapper '__init__' of exceptions.IndentationError object>"
p25
sS'__setattr__'
p26
S"<method-wrapper '__setattr__' of exceptions.IndentationError object>"
p27
sS'__reduce_ex__'
p28
S'<built-in method __reduce_ex__ of exceptions.IndentationError object>'
p29
sS'__new__'
p30
S'<built-in method __new__ of type object>'
p31
sS'__format__'
p32
S'<built-in method __format__ of exceptions.IndentationError object>'
p33
sS'__class__'
p34
S"<type 'exceptions.IndentationError'>"
p35
sS'filename'
p36
S"'applications/SBtab/modules/sbml2sbtab.py'"
p37
sS'lineno'
p38
S'64'
p39
sS'msg'
p40
S"'unexpected indent'"
p41
sS'__doc__'
p42
S"'Improper indentation.'"
p43
sS'__getitem__'
p44
S"<method-wrapper '__getitem__' of exceptions.IndentationError object>"
p45
sS'__setstate__'
p46
S'<built-in method __setstate__ of exceptions.IndentationError object>'
p47
sS'__getattribute__'
p48
S"<method-wrapper '__getattribute__' of exceptions.IndentationError object>"
p49
sS'print_file_and_line'
p50
S'None'
p51
sS'args'
p52
S"('unexpected indent', ('applications/SBtab/modules/sbml2sbtab.py', 64, 8, '        build an Enzyme SBtab\\n'))"
p53
sS'__subclasshook__'
p54
S'<built-in method __subclasshook__ of type object>'
p55
sS'offset'
p56
S'8'
sS'__unicode__'
p57
S'<built-in method __unicode__ of exceptions.IndentationError object>'
p58
sS'__delattr__'
p59
S"<method-wrapper '__delattr__' of exceptions.IndentationError object>"
p60
sS'__repr__'
p61
S"<method-wrapper '__repr__' of exceptions.IndentationError object>"
p62
sS'__hash__'
p63
S"<method-wrapper '__hash__' of exceptions.IndentationError object>"
p64
ssS'evalue'
p65
S'unexpected indent (sbml2sbtab.py, line 64)'
p66
sS'request'
p67
cgluon.html
XML_unpickle
p68
(S's\xf7a\x00\x00<div><table><tr><td style="font-weight:bold;vertical-align:top;">ajax</td><td style="vertical-align:top;">:</td><td><div>False</div></td></tr><tr><td style="font-weight:bold;vertical-align:top;">application</td><td style="vertical-align:top;">:</td><td><div>SBtab</div></td></tr><tr><td style="font-weight:bold;vertical-align:top;">args</td><td style="vertical-align:top;">:</td><td><div><table></table></div></td></tr><tr><td style="font-weight:bold;vertical-align:top;">cid</td><td style="vertical-align:top;">:</td><td><div>None</div></td></tr><tr><td style="font-weight:bold;vertical-align:top;">client</td><td style="vertical-align:top;">:</td><td><div>127.0.0.1</div></td></tr><tr><td style="font-weight:bold;vertical-align:top;">controller</td><td style="vertical-align:top;">:</td><td><div>default</div></td></tr><tr><td style="font-weight:bold;vertical-align:top;">cookies</td><td style="vertical-align:top;">:</td><td><div><table><tr><td style="font-weight:bold;vertical-align:top;">session_id_admin</td><td style="vertical-align:top;">:</td><td><div>127.0.0.1-f1425f10-c9de-4e06-bb98-1e3030b68ef9<table><tr><td style="font-weight:bold;vertical-align:top;">comment</td><td style="vertical-align:top;">:</td><td><div></div></td></tr><tr><td style="font-weight:bold;vertical-align:top;">domain</td><td style="vertical-align:top;">:</td><td><div></div></td></tr><tr><td style="font-weight:bold;vertical-align:top;">expires</td><td style="vertical-align:top;">:</td><td><div></div></td></tr><tr><td style="font-weight:bold;vertical-align:top;">httponly</td><td style="vertical-align:top;">:</td><td><div></div></td></tr><tr><td style="font-weight:bold;vertical-align:top;">max-age</td><td style="vertical-align:top;">:</td><td><div></div></td></tr><tr><td style="font-weight:bold;vertical-align:top;">path</td><td style="vertical-align:top;">:</td><td><div></div></td></tr><tr><td style="font-weight:bold;vertical-align:top;">secure</td><td style="vertical-align:top;">:</td><td><div></div></td></tr><tr><td style="font-weight:bold;vertical-align:top;">version</td><td style="vertical-align:top;">:</td><td><div></div></td></tr></table></div></td></tr><tr><td style="font-weight:bold;vertical-align:top;">session_id_sbtab</td><td style="vertical-align:top;">:</td><td><div>127.0.0.1-46d5a207-de14-4f56-a4ef-8127b5b34ae3<table><tr><td style="font-weight:bold;vertical-align:top;">comment</td><td style="vertical-align:top;">:</td><td><div></div></td></tr><tr><td style="font-weight:bold;vertical-align:top;">domain</td><td style="vertical-align:top;">:</td><td><div></div></td></tr><tr><td style="font-weight:bold;vertical-align:top;">expires</td><td style="vertical-align:top;">:</td><td><div></div></td></tr><tr><td style="font-weight:bold;vertical-align:top;">httponly</td><td style="vertical-align:top;">:</td><td><div></div></td></tr><tr><td style="font-weight:bold;vertical-align:top;">max-age</td><td style="vertical-align:top;">:</td><td><div></div></td></tr><tr><td style="font-weight:bold;vertical-align:top;">path</td><td style="vertical-align:top;">:</td><td><div></div></td></tr><tr><td style="font-weight:bold;vertical-align:top;">secure</td><td style="vertical-align:top;">:</td><td><div></div></td></tr><tr><td style="font-weight:bold;vertical-align:top;">version</td><td style="vertical-align:top;">:</td><td><div></div></td></tr></table></div></td></tr><tr><td style="font-weight:bold;vertical-align:top;">session_id_sbtab_ol</td><td style="vertical-align:top;">:</td><td><div>127.0.0.1-4db10845-8bf8-41a5-a043-3896214e51ad<table><tr><td style="font-weight:bold;vertical-align:top;">comment</td><td style="vertical-align:top;">:</td><td><div></div></td></tr><tr><td style="font-weight:bold;vertical-align:top;">domain</td><td style="vertical-align:top;">:</td><td><div></div></td></tr><tr><td style="font-weight:bold;vertical-align:top;">expires</td><td style="vertical-align:top;">:</td><td><div></div></td></tr><tr><td style="font-weight:bold;vertical-align:top;">httponly</td><td style="vertical-align:top;">:</td><td><div></div></td></tr><tr><td style="font-weight:bold;vertical-align:top;">max-age</td><td style="vertical-align:top;">:</td><td><div></div></td></tr><tr><td style="font-weight:bold;vertical-align:top;">path</td><td style="vertical-align:top;">:</td><td><div></div></td></tr><tr><td style="font-weight:bold;vertical-align:top;">secure</td><td style="vertical-align:top;">:</td><td><div></div></td></tr><tr><td style="font-weight:bold;vertical-align:top;">version</td><td style="vertical-align:top;">:</td><td><div></div></td></tr></table></div></td></tr><tr><td style="font-weight:bold;vertical-align:top;">session_id_welcome</td><td style="vertical-align:top;">:</td><td><div>127.0.0.1-adcadd5f-c814-49fe-bb4f-ebb6590b9f5e<table><tr><td style="font-weight:bold;vertical-align:top;">comment</td><td style="vertical-align:top;">:</td><td><div></div></td></tr><tr><td style="font-weight:bold;vertical-align:top;">domain</td><td style="vertical-align:top;">:</td><td><div></div></td></tr><tr><td style="font-weight:bold;vertical-align:top;">expires</td><td style="vertical-align:top;">:</td><td><div></div></td></tr><tr><td style="font-weight:bold;vertical-align:top;">httponly</td><td style="vertical-align:top;">:</td><td><div></div></td></tr><tr><td style="font-weight:bold;vertical-align:top;">max-age</td><td style="vertical-align:top;">:</td><td><div></div></td></tr><tr><td style="font-weight:bold;vertical-align:top;">path</td><td style="vertical-align:top;">:</td><td><div></div></td></tr><tr><td style="font-weight:bold;vertical-align:top;">secure</td><td style="vertical-align:top;">:</td><td><div></div></td></tr><tr><td style="font-weight:bold;vertical-align:top;">version</td><td style="vertical-align:top;">:</td><td><div></div></td></tr></table></div></td></tr><tr><td style="font-weight:bold;vertical-align:top;">session_id_yeastmap_code</td><td style="vertical-align:top;">:</td><td><div>127.0.0.1-b9096876-634f-43d4-b1ce-d48318e51cf8<table><tr><td style="font-weight:bold;vertical-align:top;">comment</td><td style="vertical-align:top;">:</td><td><div></div></td></tr><tr><td style="font-weight:bold;vertical-align:top;">domain</td><td style="vertical-align:top;">:</td><td><div></div></td></tr><tr><td style="font-weight:bold;vertical-align:top;">expires</td><td style="vertical-align:top;">:</td><td><div></div></td></tr><tr><td style="font-weight:bold;vertical-align:top;">httponly</td><td style="vertical-align:top;">:</td><td><div></div></td></tr><tr><td style="font-weight:bold;vertical-align:top;">max-age</td><td style="vertical-align:top;">:</td><td><div></div></td></tr><tr><td style="font-weight:bold;vertical-align:top;">path</td><td style="vertical-align:top;">:</td><td><div></div></td></tr><tr><td style="font-weight:bold;vertical-align:top;">secure</td><td style="vertical-align:top;">:</td><td><div></div></td></tr><tr><td style="font-weight:bold;vertical-align:top;">version</td><td style="vertical-align:top;">:</td><td><div></div></td></tr></table></div></td></tr></table></div></td></tr><tr><td style="font-weight:bold;vertical-align:top;">env</td><td style="vertical-align:top;">:</td><td><div><table><tr><td style="font-weight:bold;vertical-align:top;">HTTP_ACCEPT</td><td style="vertical-align:top;">:</td><td><div>text/html,application/xhtml+xml,application/xml;q=0.9,image/webp,*/*;q=0.8</div></td></tr><tr><td style="font-weight:bold;vertical-align:top;">HTTP_ACCEPT_ENCODING</td><td style="vertical-align:top;">:</td><td><div>gzip,deflate,sdch</div></td></tr><tr><td style="font-weight:bold;vertical-align:top;">HTTP_ACCEPT_LANGUAGE</td><td style="vertical-align:top;">:</td><td><div>en-US,en;q=0.8,de;q=0.6</div></td></tr><tr><td style="font-weight:bold;vertical-align:top;">HTTP_CONNECTION</td><td style="vertical-align:top;">:</td><td><div>keep-alive</div></td></tr><tr><td style="font-weight:bold;vertical-align:top;">HTTP_COOKIE</td><td style="vertical-align:top;">:</td><td><div>session_id_sbtab_ol=127.0.0.1-4db10845-8bf8-41a5-a043-3896214e51ad; session_id_welcome=127.0.0.1-adcadd5f-c814-49fe-bb4f-ebb6590b9f5e; session_id_yeastmap_code=127.0.0.1-b9096876-634f-43d4-b1ce-d48318e51cf8; session_id_admin=127.0.0.1-f1425f10-c9de-4e06-bb98-1e3030b68ef9; session_id_sbtab=127.0.0.1-46d5a207-de14-4f56-a4ef-8127b5b34ae3</div></td></tr><tr><td style="font-weight:bold;vertical-align:top;">HTTP_HOST</td><td style="vertical-align:top;">:</td><td><div>127.0.0.1:8000</div></td></tr><tr><td style="font-weight:bold;vertical-align:top;">HTTP_REFERER</td><td style="vertical-align:top;">:</td><td><div>http://127.0.0.1:8000/SBtab/static/introduction.html</div></td></tr><tr><td style="font-weight:bold;vertical-align:top;">HTTP_USER_AGENT</td><td style="vertical-align:top;">:</td><td><div>Mozilla/5.0 (X11; Linux i686) AppleWebKit/537.36 (KHTML, like Gecko) Ubuntu Chromium/38.0.2125.111 Chrome/38.0.2125.111 Safari/537.36</div></td></tr><tr><td style="font-weight:bold;vertical-align:top;">PATH_INFO</td><td style="vertical-align:top;">:</td><td><div>/SBtab/default/validator</div></td></tr><tr><td style="font-weight:bold;vertical-align:top;">QUERY_STRING</td><td style="vertical-align:top;">:</td><td><div></div></td></tr><tr><td style="font-weight:bold;vertical-align:top;">REMOTE_ADDR</td><td style="vertical-align:top;">:</td><td><div>127.0.0.1</div></td></tr><tr><td style="font-weight:bold;vertical-align:top;">REMOTE_PORT</td><td style="vertical-align:top;">:</td><td><div>41499</div></td></tr><tr><td style="font-weight:bold;vertical-align:top;">REQUEST_METHOD</td><td style="vertical-align:top;">:</td><td><div>GET</div></td></tr><tr><td style="font-weight:bold;vertical-align:top;">SCRIPT_NAME</td><td style="vertical-align:top;">:</td><td><div></div></td></tr><tr><td style="font-weight:bold;vertical-align:top;">SERVER_NAME</td><td style="vertical-align:top;">:</td><td><div>timputer</div></td></tr><tr><td style="font-weight:bold;vertical-align:top;">SERVER_PORT</td><td style="vertical-align:top;">:</td><td><div>8000</div></td></tr><tr><td style="font-weight:bold;vertical-align:top;">SERVER_PROTOCOL</td><td style="vertical-align:top;">:</td><td><div>HTTP/1.1</div></td></tr><tr><td style="font-weight:bold;vertical-align:top;">SERVER_SOFTWARE</td><td style="vertical-align:top;">:</td><td><div>Rocket 1.2.6</div></td></tr><tr><td style="font-weight:bold;vertical-align:top;">app_folders</td><td style="vertical-align:top;">:</td><td><div>set([&#x27;/home/tlubitz/web2py/applications/SBtab/&#x27;])</div></td></tr><tr><td style="font-weight:bold;vertical-align:top;">applications_parent</td><td style="vertical-align:top;">:</td><td><div>/home/tlubitz/web2py</div></td></tr><tr><td style="font-weight:bold;vertical-align:top;">cmd_args</td><td style="vertical-align:top;">:</td><td><div><table></table></div></td></tr><tr><td style="font-weight:bold;vertical-align:top;">cmd_options</td><td style="vertical-align:top;">:</td><td><div>&lt;Values at 0xb680276c: {&#x27;verbose&#x27;: False, &#x27;ip&#x27;: &#x27;127.0.0.1&#x27;, &#x27;debuglevel&#x27;: 30, &#x27;with_scheduler&#x27;: False, &#x27;ips&#x27;: [&#x27;127.0.1.1&#x27;], &#x27;shutdown_timeout&#x27;: 5, &#x27;taskbar&#x27;: False, &#x27;with_coverage&#x27;: False, &#x27;port&#x27;: 8000, &#x27;maxthreads&#x27;: None, &#x27;softcron&#x27;: False, &#x27;server_name&#x27;: &#x27;timputer&#x27;, &#x27;bpython&#x27;: False, &#x27;nogui&#x27;: False, &#x27;pid_filename&#x27;: &#x27;httpserver.pid&#x27;, &#x27;extcron&#x27;: False, &#x27;runcron&#x27;: False, &#x27;run_system_tests&#x27;: False, &#x27;test&#x27;: None, &#x27;folder&#x27;: &#x27;/home/tlubitz/web2py&#x27;, &#x27;config&#x27;: &#x27;&#x27;, &#x27;minthreads&#x27;: None, &#x27;shell&#x27;: None, &#x27;run&#x27;: &#x27;&#x27;, &#x27;log_filename&#x27;: &#x27;httpserver.log&#x27;, &#x27;profiler_dir&#x27;: None, &#x27;args&#x27;: [&#x27;&#x27;], &#x27;socket_timeout&#x27;: 5, &#x27;ssl_ca_certificate&#x27;: None, &#x27;scheduler&#x27;: None, &#x27;interfaces&#x27;: None, &#x27;ssl_private_key&#x27;: &#x27;&#x27;, &#x27;scheduler_groups&#x27;: None, &#x27;password&#x27;: &#x27;hund&#x27;, &#x27;request_queue_size&#x27;: 5, &#x27;ssl_certificate&#x27;: &#x27;&#x27;, &#x27;cronjob&#x27;: False, &#x27;numthreads&#x27;: None, &#x27;quiet&#x27;: False, &#x27;import_models&#x27;: False, &#x27;timeout&#x27;: 10, &#x27;plain&#x27;: False, &#x27;nobanner&#x27;: False}&gt;</div></td></tr><tr><td style="font-weight:bold;vertical-align:top;">db_sessions</td><td style="vertical-align:top;">:</td><td><div>set([])</div></td></tr><tr><td style="font-weight:bold;vertical-align:top;">debugging</td><td style="vertical-align:top;">:</td><td><div>False</div></td></tr><tr><td style="font-weight:bold;vertical-align:top;">gluon_parent</td><td style="vertical-align:top;">:</td><td><div>/home/tlubitz/web2py</div></td></tr><tr><td style="font-weight:bold;vertical-align:top;">http_accept</td><td style="vertical-align:top;">:</td><td><div>text/html,application/xhtml+xml,application/xml;q=0.9,image/webp,*/*;q=0.8</div></td></tr><tr><td style="font-weight:bold;vertical-align:top;">http_accept_encoding</td><td style="vertical-align:top;">:</td><td><div>gzip,deflate,sdch</div></td></tr><tr><td style="font-weight:bold;vertical-align:top;">http_accept_language</td><td style="vertical-align:top;">:</td><td><div>en-US,en;q=0.8,de;q=0.6</div></td></tr><tr><td style="font-weight:bold;vertical-align:top;">http_connection</td><td style="vertical-align:top;">:</td><td><div>keep-alive</div></td></tr><tr><td style="font-weight:bold;vertical-align:top;">http_cookie</td><td style="vertical-align:top;">:</td><td><div>session_id_sbtab_ol=127.0.0.1-4db10845-8bf8-41a5-a043-3896214e51ad; session_id_welcome=127.0.0.1-adcadd5f-c814-49fe-bb4f-ebb6590b9f5e; session_id_yeastmap_code=127.0.0.1-b9096876-634f-43d4-b1ce-d48318e51cf8; session_id_admin=127.0.0.1-f1425f10-c9de-4e06-bb98-1e3030b68ef9; session_id_sbtab=127.0.0.1-46d5a207-de14-4f56-a4ef-8127b5b34ae3</div></td></tr><tr><td style="font-weight:bold;vertical-align:top;">http_host</td><td style="vertical-align:top;">:</td><td><div>127.0.0.1:8000</div></td></tr><tr><td style="font-weight:bold;vertical-align:top;">http_referer</td><td style="vertical-align:top;">:</td><td><div>http://127.0.0.1:8000/SBtab/static/introduction.html</div></td></tr><tr><td style="font-weight:bold;vertical-align:top;">http_user_agent</td><td style="vertical-align:top;">:</td><td><div>Mozilla/5.0 (X11; Linux i686) AppleWebKit/537.36 (KHTML, like Gecko) Ubuntu Chromium/38.0.2125.111 Chrome/38.0.2125.111 Safari/537.36</div></td></tr><tr><td style="font-weight:bold;vertical-align:top;">is_jython</td><td style="vertical-align:top;">:</td><td><div>False</div></td></tr><tr><td style="font-weight:bold;vertical-align:top;">is_pypy</td><td style="vertical-align:top;">:</td><td><div>False</div></td></tr><tr><td style="font-weight:bold;vertical-align:top;">is_source</td><td style="vertical-align:top;">:</td><td><div>True</div></td></tr><tr><td style="font-weight:bold;vertical-align:top;">path_info</td><td style="vertical-align:top;">:</td><td><div>/SBtab/default/validator</div></td></tr><tr><td style="font-weight:bold;vertical-align:top;">query_string</td><td style="vertical-align:top;">:</td><td><div></div></td></tr><tr><td style="font-weight:bold;vertical-align:top;">remote_addr</td><td style="vertical-align:top;">:</td><td><div>127.0.0.1</div></td></tr><tr><td style="font-weight:bold;vertical-align:top;">remote_port</td><td style="vertical-align:top;">:</td><td><div>41499</div></td></tr><tr><td style="font-weight:bold;vertical-align:top;">request_method</td><td style="vertical-align:top;">:</td><td><div>GET</div></td></tr><tr><td style="font-weight:bold;vertical-align:top;">request_uri</td><td style="vertical-align:top;">:</td><td><div>/SBtab/default/validator</div></td></tr><tr><td style="font-weight:bold;vertical-align:top;">script_name</td><td style="vertical-align:top;">:</td><td><div></div></td></tr><tr><td style="font-weight:bold;vertical-align:top;">server_name</td><td style="vertical-align:top;">:</td><td><div>timputer</div></td></tr><tr><td style="font-weight:bold;vertical-align:top;">server_port</td><td style="vertical-align:top;">:</td><td><div>8000</div></td></tr><tr><td style="font-weight:bold;vertical-align:top;">server_protocol</td><td style="vertical-align:top;">:</td><td><div>HTTP/1.1</div></td></tr><tr><td style="font-weight:bold;vertical-align:top;">server_software</td><td style="vertical-align:top;">:</td><td><div>Rocket 1.2.6</div></td></tr><tr><td style="font-weight:bold;vertical-align:top;">web2py_original_uri</td><td style="vertical-align:top;">:</td><td><div>/SBtab/default/validator</div></td></tr><tr><td style="font-weight:bold;vertical-align:top;">web2py_path</td><td style="vertical-align:top;">:</td><td><div>/home/tlubitz/web2py</div></td></tr><tr><td style="font-weight:bold;vertical-align:top;">web2py_version</td><td style="vertical-align:top;">:</td><td><div>2.8.2-stable+timestamp.2013.11.28.13.54.07</div></td></tr><tr><td style="font-weight:bold;vertical-align:top;">wsgi.errors</td><td style="vertical-align:top;">:</td><td><div>&lt;open file &#x27;&lt;stderr&gt;&#x27;, mode &#x27;w&#x27; at 0xb748d0d0&gt;</div></td></tr><tr><td style="font-weight:bold;vertical-align:top;">wsgi.file_wrapper</td><td style="vertical-align:top;">:</td><td><div>&lt;class wsgiref.util.FileWrapper at 0xb661d14c&gt;</div></td></tr><tr><td style="font-weight:bold;vertical-align:top;">wsgi.input</td><td style="vertical-align:top;">:</td><td><div>&lt;socket._fileobject object at 0xb66252ec&gt;</div></td></tr><tr><td style="font-weight:bold;vertical-align:top;">wsgi.multiprocess</td><td style="vertical-align:top;">:</td><td><div>False</div></td></tr><tr><td style="font-weight:bold;vertical-align:top;">wsgi.multithread</td><td style="vertical-align:top;">:</td><td><div>True</div></td></tr><tr><td style="font-weight:bold;vertical-align:top;">wsgi.run_once</td><td style="vertical-align:top;">:</td><td><div>False</div></td></tr><tr><td style="font-weight:bold;vertical-align:top;">wsgi.url_scheme</td><td style="vertical-align:top;">:</td><td><div>http</div></td></tr><tr><td style="font-weight:bold;vertical-align:top;">wsgi.version</td><td style="vertical-align:top;">:</td><td><div><table><tr><td><div>1</div></td></tr><tr><td><div>0</div></td></tr></table></div></td></tr><tr><td style="font-weight:bold;vertical-align:top;">wsgi_errors</td><td style="vertical-align:top;">:</td><td><div>&lt;open file &#x27;&lt;stderr&gt;&#x27;, mode &#x27;w&#x27; at 0xb748d0d0&gt;</div></td></tr><tr><td style="font-weight:bold;vertical-align:top;">wsgi_file_wrapper</td><td style="vertical-align:top;">:</td><td><div>&lt;class wsgiref.util.FileWrapper at 0xb661d14c&gt;</div></td></tr><tr><td style="font-weight:bold;vertical-align:top;">wsgi_input</td><td style="vertical-align:top;">:</td><td><div>&lt;socket._fileobject object at 0xb66252ec&gt;</div></td></tr><tr><td style="font-weight:bold;vertical-align:top;">wsgi_multiprocess</td><td style="vertical-align:top;">:</td><td><div>False</div></td></tr><tr><td style="font-weight:bold;vertical-align:top;">wsgi_multithread</td><td style="vertical-align:top;">:</td><td><div>True</div></td></tr><tr><td style="font-weight:bold;vertical-align:top;">wsgi_run_once</td><td style="vertical-align:top;">:</td><td><div>False</div></td></tr><tr><td style="font-weight:bold;vertical-align:top;">wsgi_url_scheme</td><td style="vertical-align:top;">:</td><td><div>http</div></td></tr><tr><td style="font-weight:bold;vertical-align:top;">wsgi_version</td><td style="vertical-align:top;">:</td><td><div><table><tr><td><div>1</div></td></tr><tr><td><div>0</div></td></tr></table></div></td></tr></table></div></td></tr><tr><td style="font-weight:bold;vertical-align:top;">extension</td><td style="vertical-align:top;">:</td><td><div>html</div></td></tr><tr><td style="font-weight:bold;vertical-align:top;">folder</td><td style="vertical-align:top;">:</td><td><div>/home/tlubitz/web2py/applications/SBtab/</div></td></tr><tr><td style="font-weight:bold;vertical-align:top;">function</td><td style="vertical-align:top;">:</td><td><div>validator</div></td></tr><tr><td style="font-weight:bold;vertical-align:top;">global_settings</td><td style="vertical-align:top;">:</td><td><div><table><tr><td style="font-weight:bold;vertical-align:top;">app_folders</td><td style="vertical-align:top;">:</td><td><div>set([&#x27;/home/tlubitz/web2py/applications/SBtab/&#x27;])</div></td></tr><tr><td style="font-weight:bold;vertical-align:top;">applications_parent</td><td style="vertical-align:top;">:</td><td><div>/home/tlubitz/web2py</div></td></tr><tr><td style="font-weight:bold;vertical-align:top;">cmd_args</td><td style="vertical-align:top;">:</td><td><div><table></table></div></td></tr><tr><td style="font-weight:bold;vertical-align:top;">cmd_options</td><td style="vertical-align:top;">:</td><td><div>&lt;Values at 0xb680276c: {&#x27;verbose&#x27;: False, &#x27;ip&#x27;: &#x27;127.0.0.1&#x27;, &#x27;debuglevel&#x27;: 30, &#x27;with_scheduler&#x27;: False, &#x27;ips&#x27;: [&#x27;127.0.1.1&#x27;], &#x27;shutdown_timeout&#x27;: 5, &#x27;taskbar&#x27;: False, &#x27;with_coverage&#x27;: False, &#x27;port&#x27;: 8000, &#x27;maxthreads&#x27;: None, &#x27;softcron&#x27;: False, &#x27;server_name&#x27;: &#x27;timputer&#x27;, &#x27;bpython&#x27;: False, &#x27;nogui&#x27;: False, &#x27;pid_filename&#x27;: &#x27;httpserver.pid&#x27;, &#x27;extcron&#x27;: False, &#x27;runcron&#x27;: False, &#x27;run_system_tests&#x27;: False, &#x27;test&#x27;: None, &#x27;folder&#x27;: &#x27;/home/tlubitz/web2py&#x27;, &#x27;config&#x27;: &#x27;&#x27;, &#x27;minthreads&#x27;: None, &#x27;shell&#x27;: None, &#x27;run&#x27;: &#x27;&#x27;, &#x27;log_filename&#x27;: &#x27;httpserver.log&#x27;, &#x27;profiler_dir&#x27;: None, &#x27;args&#x27;: [&#x27;&#x27;], &#x27;socket_timeout&#x27;: 5, &#x27;ssl_ca_certificate&#x27;: None, &#x27;scheduler&#x27;: None, &#x27;interfaces&#x27;: None, &#x27;ssl_private_key&#x27;: &#x27;&#x27;, &#x27;scheduler_groups&#x27;: None, &#x27;password&#x27;: &#x27;hund&#x27;, &#x27;request_queue_size&#x27;: 5, &#x27;ssl_certificate&#x27;: &#x27;&#x27;, &#x27;cronjob&#x27;: False, &#x27;numthreads&#x27;: None, &#x27;quiet&#x27;: False, &#x27;import_models&#x27;: False, &#x27;timeout&#x27;: 10, &#x27;plain&#x27;: False, &#x27;nobanner&#x27;: False}&gt;</div></td></tr><tr><td style="font-weight:bold;vertical-align:top;">db_sessions</td><td style="vertical-align:top;">:</td><td><div>set([])</div></td></tr><tr><td style="font-weight:bold;vertical-align:top;">debugging</td><td style="vertical-align:top;">:</td><td><div>False</div></td></tr><tr><td style="font-weight:bold;vertical-align:top;">gluon_parent</td><td style="vertical-align:top;">:</td><td><div>/home/tlubitz/web2py</div></td></tr><tr><td style="font-weight:bold;vertical-align:top;">is_jython</td><td style="vertical-align:top;">:</td><td><div>False</div></td></tr><tr><td style="font-weight:bold;vertical-align:top;">is_pypy</td><td style="vertical-align:top;">:</td><td><div>False</div></td></tr><tr><td style="font-weight:bold;vertical-align:top;">is_source</td><td style="vertical-align:top;">:</td><td><div>True</div></td></tr><tr><td style="font-weight:bold;vertical-align:top;">local_hosts</td><td style="vertical-align:top;">:</td><td><div><table><tr><td><div>timputer</div></td></tr><tr><td><div>::1</div></td></tr><tr><td><div>127.0.1.1</div></td></tr><tr><td><div>::ffff:127.0.0.1</div></td></tr><tr><td><div>127.0.0.1</div></td></tr></table></div></td></tr><tr><td style="font-weight:bold;vertical-align:top;">web2py_version</td><td style="vertical-align:top;">:</td><td><div>2.8.2-stable+timestamp.2013.11.28.13.54.07</div></td></tr></table></div></td></tr><tr><td style="font-weight:bold;vertical-align:top;">is_https</td><td style="vertical-align:top;">:</td><td><div>False</div></td></tr><tr><td style="font-weight:bold;vertical-align:top;">is_local</td><td style="vertical-align:top;">:</td><td><div>True</div></td></tr><tr><td style="font-weight:bold;vertical-align:top;">is_restful</td><td style="vertical-align:top;">:</td><td><div>False</div></td></tr><tr><td style="font-weight:bold;vertical-align:top;">now</td><td style="vertical-align:top;">:</td><td><div>datetime.datetime(2014, 11, 19, 16, 5, 49, 475209)</div></td></tr><tr><td style="font-weight:bold;vertical-align:top;">url</td><td style="vertical-align:top;">:</td><td><div>/SBtab/default/validator</div></td></tr><tr><td style="font-weight:bold;vertical-align:top;">utcnow</td><td style="vertical-align:top;">:</td><td><div>datetime.datetime(2014, 11, 19, 15, 5, 49, 475232)</div></td></tr><tr><td style="font-weight:bold;vertical-align:top;">uuid</td><td style="vertical-align:top;">:</td><td><div>SBtab/127.0.0.1.2014-11-19.16-05-49.e1ef9f5f-963b-47ee-99c4-ae534e895dbd</div></td></tr><tr><td style="font-weight:bold;vertical-align:top;">wsgi</td><td style="vertical-align:top;">:</td><td><div>&lt;gluon.main.LazyWSGI object at 0xb6822c8c&gt;</div></td></tr></table></div>'
tRp69
sS'frames'
p70
(lp71
(dp72
S'file'
p73
S'/home/tlubitz/web2py/gluon/restricted.py'
p74
sS'dump'
p75
(dp76
S'environment'
p77
S"{'A': <class 'gluon.html.A'>, 'ANY_OF': <class 'gluon.validators.ANY_OF'>, 'Auth': <class 'gluon.tools.Auth'>, 'B': <class 'gluon.html.B'>, 'BEAUTIFY': <class 'gluon.html.BEAUTIFY'>, 'BODY': <class 'gluon.html.BODY'>, 'BR': <class 'gluon.html.BR'>, 'BUTTON': <class 'gluon.html.BUTTON'>, 'CAT': <class 'gluon.html.CAT'>, 'CENTER': <class 'gluon.html.CENTER'>, ...}"
p78
sS'ccode'
p79
S'<code object <module> at 0xb67d7578, file "/home...lications/SBtab/controllers/default.py", line 11>'
p80
ssS'lnum'
p81
I217
sS'lines'
p82
(dp83
I212
S'    try:'
p84
sI213
S'        if isinstance(code, types.CodeType):'
p85
sI214
S'            ccode = code'
p86
sI215
S'        else:'
p87
sI216
S'            ccode = compile2(code, layer)'
p88
sI217
S'        exec ccode in environment'
p89
sI218
S'    except HTTP:'
p90
sI219
S'        raise'
p91
sI220
S'    except RestrictedError:'
p92
sI221
S'        # do not encapsulate (obfuscate) the original RestrictedError'
p93
ssS'call'
p94
S"(code='# -*- coding: utf-8 -*-\\n# this file is released ...d())\\n\\nresponse._vars=response._caller(validator)\\n', environment={'A': <class 'gluon.html.A'>, 'ANY_OF': <class 'gluon.validators.ANY_OF'>, 'Auth': <class 'gluon.tools.Auth'>, 'B': <class 'gluon.html.B'>, 'BEAUTIFY': <class 'gluon.html.BEAUTIFY'>, 'BODY': <class 'gluon.html.BODY'>, 'BR': <class 'gluon.html.BR'>, 'BUTTON': <class 'gluon.html.BUTTON'>, 'CAT': <class 'gluon.html.CAT'>, 'CENTER': <class 'gluon.html.CENTER'>, ...}, layer='/home/tlubitz/web2py/applications/SBtab/controllers/default.py')"
p95
sS'func'
p96
S'restricted'
p97
sa(dp98
g73
S'/home/tlubitz/web2py/applications/SBtab/controllers/default.py'
p99
sg75
(dp100
S'sbml2sbtab'
p101
S'undefined'
p102
ssg81
I14
sg82
(dp103
I9
S'## - call exposes all registered services (none by default)'
p104
sI10
S'#########################################################################'
p105
sI11
S'import tablib'
p106
sI12
S'import tablibIO'
p107
sI13
S'import validatorSBtab'
p108
sI14
S'import sbml2sbtab'
p109
sI15
S'import sbtab2sbml'
p110
sI16
S'import libsbml'
p111
sI17
S'import random'
p112
sI18
S'import splitTabs'
p113
ssg94
S'()'
p114
sg96
S'<module>'
p115
sa(dp116
g73
S'/home/tlubitz/web2py/gluon/custom_import.py'
p117
sg75
(dp118
S'e2'
p119
S"IndentationError('unexpected indent', ('applicat...b.py', 64, 8, '        build an Enzyme SBtab\\n'))"
p120
ssg81
I94
sg82
(dp121
I96
S'            if import_tb:'
p122
sI97
S'                import_tb = None'
p123
sI98
S''
sI89
S'            try:'
p124
sI90
S'                return NATIVE_IMPORTER(name, globals, locals, fromlist, level)'
p125
sI91
S'            except ImportError, e3:'
p126
sI92
S'                raise ImportError, e1, import_tb  # there an import error in the module'
p127
sI93
S'        except Exception, e2:'
p128
sI94
S'            raise e2  # there is an error in the module'
p129
sI95
S'        finally:'
p130
ssg94
S"(name='sbml2sbtab', globals={'A': <class 'gluon.html.A'>, 'ANY_OF': <class 'gluon.validators.ANY_OF'>, 'Auth': <class 'gluon.tools.Auth'>, 'B': <class 'gluon.html.B'>, 'BEAUTIFY': <class 'gluon.html.BEAUTIFY'>, 'BODY': <class 'gluon.html.BODY'>, 'BR': <class 'gluon.html.BR'>, 'BUTTON': <class 'gluon.html.BUTTON'>, 'CAT': <class 'gluon.html.CAT'>, 'CENTER': <class 'gluon.html.CENTER'>, ...}, locals={'A': <class 'gluon.html.A'>, 'ANY_OF': <class 'gluon.validators.ANY_OF'>, 'Auth': <class 'gluon.tools.Auth'>, 'B': <class 'gluon.html.B'>, 'BEAUTIFY': <class 'gluon.html.BEAUTIFY'>, 'BODY': <class 'gluon.html.BODY'>, 'BR': <class 'gluon.html.BR'>, 'BUTTON': <class 'gluon.html.BUTTON'>, 'CAT': <class 'gluon.html.CAT'>, 'CENTER': <class 'gluon.html.CENTER'>, ...}, fromlist=[], level=-1)"
p131
sg96
S'custom_importer'
p132
sasS'pyver'
p133
S'Python 2.7.6: /usr/bin/python (prefix: /usr)'
p134
sS'session'
p135
g68
(S's\xbc\x9e\x00\x00<div><table><tr><td style="font-weight:bold;vertical-align:top;">definition_file</td><td style="vertical-align:top;">:</td><td><div><table></table></div></td></tr><tr><td style="font-weight:bold;vertical-align:top;">definition_file_name</td><td style="vertical-align:top;">:</td><td><div><table></table></div></td></tr><tr><td style="font-weight:bold;vertical-align:top;">ex_warning</td><td style="vertical-align:top;">:</td><td><div>None</div></td></tr><tr><td style="font-weight:bold;vertical-align:top;">name2doc</td><td style="vertical-align:top;">:</td><td><div><table><tr><td style="font-weight:bold;vertical-align:top;">ecoli_ccm_aerobic_ModelData_Compound</td><td style="vertical-align:top;">:</td><td><div>None</div></td></tr><tr><td style="font-weight:bold;vertical-align:top;">ecoli_ccm_aerobic_ModelData_Quantity</td><td style="vertical-align:top;">:</td><td><div>None</div></td></tr><tr><td style="font-weight:bold;vertical-align:top;">ecoli_ccm_aerobic_ModelData_Quantity_405</td><td style="vertical-align:top;">:</td><td><div>None</div></td></tr><tr><td style="font-weight:bold;vertical-align:top;">ecoli_ccm_aerobic_ModelData_Quantity_498</td><td style="vertical-align:top;">:</td><td><div>None</div></td></tr><tr><td style="font-weight:bold;vertical-align:top;">ecoli_ccm_aerobic_ModelData_Quantity_524</td><td style="vertical-align:top;">:</td><td><div>None</div></td></tr><tr><td style="font-weight:bold;vertical-align:top;">ecoli_ccm_aerobic_ModelData_Quantity_547</td><td style="vertical-align:top;">:</td><td><div>None</div></td></tr><tr><td style="font-weight:bold;vertical-align:top;">ecoli_ccm_aerobic_ModelData_Quantity_568</td><td style="vertical-align:top;">:</td><td><div>None</div></td></tr><tr><td style="font-weight:bold;vertical-align:top;">ecoli_ccm_aerobic_ModelData_Quantity_705</td><td style="vertical-align:top;">:</td><td><div>None</div></td></tr><tr><td style="font-weight:bold;vertical-align:top;">ecoli_ccm_aerobic_ModelData_Reaction</td><td style="vertical-align:top;">:</td><td><div>None</div></td></tr></table></div></td></tr><tr><td style="font-weight:bold;vertical-align:top;">sbml_fileformat</td><td style="vertical-align:top;">:</td><td><div><table></table></div></td></tr><tr><td style="font-weight:bold;vertical-align:top;">sbml_filenames</td><td style="vertical-align:top;">:</td><td><div><table></table></div></td></tr><tr><td style="font-weight:bold;vertical-align:top;">sbmls</td><td style="vertical-align:top;">:</td><td><div><table></table></div></td></tr><tr><td style="font-weight:bold;vertical-align:top;">sbtab_docnames</td><td style="vertical-align:top;">:</td><td><div><table><tr><td><div>None</div></td></tr><tr><td><div>None</div></td></tr><tr><td><div>None</div></td></tr><tr><td><div>None</div></td></tr><tr><td><div>None</div></td></tr><tr><td><div>None</div></td></tr><tr><td><div>None</div></td></tr><tr><td><div>None</div></td></tr><tr><td><div>None</div></td></tr></table></div></td></tr><tr><td style="font-weight:bold;vertical-align:top;">sbtab_fileformat</td><td style="vertical-align:top;">:</td><td><div><table><tr><td><div>.csv</div></td></tr><tr><td><div>.csv</div></td></tr><tr><td><div>.csv</div></td></tr><tr><td><div>.csv</div></td></tr><tr><td><div>.csv</div></td></tr><tr><td><div>.csv</div></td></tr><tr><td><div>.csv</div></td></tr><tr><td><div>.csv</div></td></tr><tr><td><div>.csv</div></td></tr></table></div></td></tr><tr><td style="font-weight:bold;vertical-align:top;">sbtab_filenames</td><td style="vertical-align:top;">:</td><td><div><table><tr><td><div>ecoli_ccm_aerobic_ModelData_Reaction</div></td></tr><tr><td><div>ecoli_ccm_aerobic_ModelData_Compound</div></td></tr><tr><td><div>ecoli_ccm_aerobic_ModelData_Quantity</div></td></tr><tr><td><div>ecoli_ccm_aerobic_ModelData_Quantity_568</div></td></tr><tr><td><div>ecoli_ccm_aerobic_ModelData_Quantity_498</div></td></tr><tr><td><div>ecoli_ccm_aerobic_ModelData_Quantity_405</div></td></tr><tr><td><div>ecoli_ccm_aerobic_ModelData_Quantity_547</div></td></tr><tr><td><div>ecoli_ccm_aerobic_ModelData_Quantity_705</div></td></tr><tr><td><div>ecoli_ccm_aerobic_ModelData_Quantity_524</div></td></tr></table></div></td></tr><tr><td style="font-weight:bold;vertical-align:top;">sbtab_types</td><td style="vertical-align:top;">:</td><td><div><table><tr><td><div>Reaction</div></td></tr><tr><td><div>Compound</div></td></tr><tr><td><div>Quantity</div></td></tr><tr><td><div>Quantity</div></td></tr><tr><td><div>Quantity</div></td></tr><tr><td><div>Quantity</div></td></tr><tr><td><div>Quantity</div></td></tr><tr><td><div>Quantity</div></td></tr><tr><td><div>Quantity</div></td></tr></table></div></td></tr><tr><td style="font-weight:bold;vertical-align:top;">sbtabs</td><td style="vertical-align:top;">:</td><td><div><table><tr><td><div>!!SBtab TableName=&#x27;Reaction&#x27; TableType=&#x27;Reaction&#x27;\t\t\t\t\t\t\n!Reaction\t!SumFormula\t!Reaction:Identifiers:kegg.reaction\t!IsReversible\t!Gene\t\t\nPTS_RPTSsy\tD_Glucose + Phosphoenolpyruvate &lt;=&gt; Pyruvate + D_Glucose_6_phosphate\tRPTSsy\t1\tPTS\t\t\nPGI_R02740\tD_Glucose_6_phosphate &lt;=&gt; D_Fructose_6_phosphate\tR02740\t1\tPGI\t\t\nPFK_R04779\tATP + D_Fructose_6_phosphate &lt;=&gt; ADP + D_Fructose_1_6_bisphosphate\tR04779\t1\tPFK\t\t\nALD_R01070\tD_Fructose_1_6_bisphosphate &lt;=&gt; Glycerone_phosphate + D_Glyceraldehyde_3_phosphate\tR01070\t1\tALD\t\t\nTIM_R01015\tGlycerone_phosphate &lt;=&gt; D_Glyceraldehyde_3_phosphate\tR01015\t1\tTIM\t\t\nGAP_R01061\tOrthophosphate + NADplus + D_Glyceraldehyde_3_phosphate &lt;=&gt; NADH + _3_Phospho_D_glyceroyl_phosphate\tR01061\t1\tGAP\t\t\nPGK_R01512\tADP + _3_Phospho_D_glyceroyl_phosphate &lt;=&gt; ATP + _3_Phospho_D_glycerate\tR01512\t1\tPGK\t\t\nPGM_R01518\t_3_Phospho_D_glycerate &lt;=&gt; _2_Phospho_D_glycerate\tR01518\t1\tPGM\t\t\nPGH_R00658\t_2_Phospho_D_glycerate &lt;=&gt; H2O + Phosphoenolpyruvate\tR00658\t1\tPGH\t\t\nPYK_R00200\tADP + Phosphoenolpyruvate &lt;=&gt; Pyruvate + ATP\tR00200\t1\tPYK\t\t\nPDH_R00209\tPyruvate + NADplus + CoA &lt;=&gt; Acetyl_CoA + NADH + CO2\tR00209\t1\tPDH\t\t\nZWF_R00835\tNADPplus + D_Glucose_6_phosphate &lt;=&gt; NADPH + D_Glucono_1_5_lactone_6_phosphate\tR00835\t1\tZWF\t\t\nGLH_R02035\tH2O + D_Glucono_1_5_lactone_6_phosphate &lt;=&gt; _6_Phospho_D_gluconate\tR02035\t1\tGLH\t\t\nPGD_R01528\t_6_Phospho_D_gluconate + NADPplus &lt;=&gt; NADPH + D_Ribulose_5_phosphate + CO2\tR01528\t1\tPGD\t\t\nRPI_R01056\tD_Ribulose_5_phosphate &lt;=&gt; D_Ribose_5_phosphate\tR01056\t1\tRPI\t\t\nRPE_R01529\tD_Ribulose_5_phosphate &lt;=&gt; D_Xylulose_5_phosphate\tR01529\t1\tRPE\t\t\nTXT_R01641\tD_Xylulose_5_phosphate + D_Ribose_5_phosphate &lt;=&gt; D_Glyceraldehyde_3_phosphate + Sedoheptulose_7_phosphate\tR01641\t1\tTXT\t\t\nTAL_R08575\tD_Glyceraldehyde_3_phosphate + Sedoheptulose_7_phosphate &lt;=&gt; D_Erythrose_4_phosphate + D_Fructose_6_phosphate\tR08575\t1\tTAL\t\t\nTXT_R01067\tD_Erythrose_4_phosphate + D_Xylulose_5_phosphate &lt;=&gt; D_Glyceraldehyde_3_phosphate + D_Fructose_6_phosphate\tR01067\t1\tTXT\t\t\nFBP_R00762\tH2O + D_Fructose_1_6_bisphosphate &lt;=&gt; Orthophosphate + D_Fructose_6_phosphate\tR00762\t1\tFBP\t\t\nCSN_R00351\tAcetyl_CoA + H2O + Oxaloacetate &lt;=&gt; CoA + Citrate\tR00351\t1\tCSN\t\t\nACN_R00351\tCitrate &lt;=&gt; cis_Aconitate + H2O\tR00351\t1\tACN\t\t\nACN_R01900\tcis_Aconitate + H2O &lt;=&gt; Isocitrate\tR01900\t1\tACN\t\t\nICD_R00709\tNADplus + Isocitrate &lt;=&gt; NADH + _2_Oxoglutarate + CO2\tR00709\t1\tICD\t\t\nKGD_R08549\tNADplus + _2_Oxoglutarate + CoA &lt;=&gt; NADH + CO2 + Succinyl_CoA\tR08549\t1\tKGD\t\t\nSCS_R00405\tOrthophosphate + ADP + Succinyl_CoA &lt;=&gt; ATP + CoA + Succinate\tR00405\t1\tSCS\t\t\nSDH_R02164\tUbiquinone + Succinate &lt;=&gt; Fumarate + Ubiquinol\tR02164\t1\tSDH\t\t\nFUM_R01082\tFumarate + H2O &lt;=&gt; _S__Malate\tR01082\t1\tFUM\t\t\nMDH_R00342\t_S__Malate + NADplus &lt;=&gt; NADH + Oxaloacetate\tR00342\t1\tMDH\t\t</div></td></tr><tr><td><div>!!SBtab TableName=&#x27;Compound&#x27; TableType=&#x27;Compound&#x27;\t\t\t\t\t\t\n!Compound\t!Name\t!Compound:Identifiers:kegg.compound\t!External\t\t\t\n_S__Malate\t(S)-Malate\tC00149\t0\t\t\t\nAcetyl_CoA\tAcetyl-CoA\tC00024\t0\t\t\t\nFumarate\tFumarate\tC00122\t0\t\t\t\ncis_Aconitate\tcis-Aconitate\tC00417\t0\t\t\t\n_6_Phospho_D_gluconate\t6-Phospho-D-gluconate\tC00345\t0\t\t\t\nOrthophosphate\tOrthophosphate\tC00009\t1\t\t\t\nPyruvate\tPyruvate\tC00022\t0\t\t\t\nNADPplus\tNADP+\tC00006\t1\t\t\t\nNADPH\tNADPH\tC00005\t1\t\t\t\nNADH\tNADH\tC00004\t1\t\t\t\nNADplus\tNAD+\tC00003\t1\t\t\t\nATP\tATP\tC00002\t1\t\t\t\nH2O\tH2O\tC00001\t1\t\t\t\n_2_Oxoglutarate\t2-Oxoglutarate\tC00026\t0\t\t\t\nOxaloacetate\tOxaloacetate\tC00036\t0\t\t\t\nUbiquinone\tUbiquinone\tC00399\t1\t\t\t\nD_Erythrose_4_phosphate\tD-Erythrose 4-phosphate\tC00279\t0\t\t\t\nUbiquinol\tUbiquinol\tC00390\t1\t\t\t\nADP\tADP\tC00008\t1\t\t\t\nIsocitrate\tIsocitrate\tC00311\t0\t\t\t\nD_Ribulose_5_phosphate\tD-Ribulose 5-phosphate\tC00199\t0\t\t\t\nD_Xylulose_5_phosphate\tD-Xylulose 5-phosphate\tC00231\t0\t\t\t\nD_Glucose_6_phosphate\tD-Glucose 6-phosphate\tC00092\t1\t\t\t\n_3_Phospho_D_glyceroyl_phosphate\t3-Phospho-D-glyceroyl phosphate\tC00236\t0\t\t\t\nCoA\tCoA\tC00010\t0\t\t\t\nCO2\tCO2\tC00011\t1\t\t\t\nD_Ribose_5_phosphate\tD-Ribose 5-phosphate\tC00117\t0\t\t\t\nGlycerone_phosphate\tGlycerone phosphate\tC00111\t0\t\t\t\nD_Glucose\tD-Glucose\tC00031\t1\t\t\t\nD_Fructose_1_6_bisphosphate\tD-Fructose 1,6-bisphosphate\tC00354\t1\t\t\t\nD_Glyceraldehyde_3_phosphate\tD-Glyceraldehyde 3-phosphate\tC00118\t1\t\t\t\nPhosphoenolpyruvate\tPhosphoenolpyruvate\tC00074\t0\t\t\t\nCitrate\tCitrate\tC00158\t0\t\t\t\nSuccinyl_CoA\tSuccinyl-CoA\tC00091\t0\t\t\t\n_3_Phospho_D_glycerate\t3-Phospho-D-glycerate\tC00197\t0\t\t\t\nD_Glucono_1_5_lactone_6_phosphate\tD-Glucono-1,5-lactone 6-phosphate\tC01236\t0\t\t\t\nD_Fructose_6_phosphate\tD-Fructose 6-phosphate\tC00085\t1\t\t\t\n_2_Phospho_D_glycerate\t2-Phospho-D-glycerate\tC00631\t0\t\t\t\nSuccinate\tSuccinate\tC00042\t0\t\t\t\nSedoheptulose_7_phosphate\tSedoheptulose 7-phosphate\tC05382\t0\t\t\t</div></td></tr><tr><td><div>!!SBtab TableName=&#x27;RateConstant&#x27; TableType=&#x27;Quantity&#x27;\t\t\t\t\t\t\n!QuantityType\t!Value\t!Compound\t!Compound:Identifiers:kegg.compound\t!Reaction\t!Reaction:Identifiers:kegg.reaction\t!Unit\nequilibrium constant\t51340046\t\t\tPTS_RPTSsy\tRPTSsy\t-\nequilibrium constant\t0.36576352\t\t\tPGI_R02740\tR02740\t-\nequilibrium constant\t1686.0502\t\t\tPFK_R04779\tR04779\t-\nequilibrium constant\t0.19083567\t\t\tALD_R01070\tR01070\t-\nequilibrium constant\t0.10880772\t\t\tTIM_R01015\tR01015\t-\nequilibrium constant\t0.00036932495\t\t\tGAP_R01061\tR01061\t-\nequilibrium constant\t1798.8704\t\t\tPGK_R01512\tR01512\t-\nequilibrium constant\t0.19005781\t\t\tPGM_R01518\tR01518\t-\nequilibrium constant\t5.1500962\t\t\tPGH_R00658\tR00658\t-\nequilibrium constant\t21009.861\t\t\tPYK_R00200\tR00200\t-\nequilibrium constant\t1530675.4\t\t\tPDH_R00209\tR00209\t-\nequilibrium constant\t12.743901\t\t\tZWF_R00835\tR00835\t-\nequilibrium constant\t19686.771\t\t\tGLH_R02035\tR02035\t-\nequilibrium constant\t12.168412\t\t\tPGD_R01528\tR01528\t-\nequilibrium constant\t2.2545738\t\t\tRPI_R01056\tR01056\t-\nequilibrium constant\t3.874617\t\t\tRPE_R01529\tR01529\t-\nequilibrium constant\t4.6931297\t\t\tTXT_R01641\tR01641\t-\nequilibrium constant\t1.3175431\t\t\tTAL_R08575\tR08575\t-\nequilibrium constant\t58.351651\t\t\tTXT_R01067\tR01067\t-\nequilibrium constant\t46298.203\t\t\tFBP_R00762\tR00762\t-\nequilibrium constant\t4991918.7\t\t\tCSN_R00351\tR00351\t-\nequilibrium constant\t0.035482795\t\t\tACN_R00351\tR00351\t-\nequilibrium constant\t1.3171737\t\t\tACN_R01900\tR01900\t-\nequilibrium constant\t97.814638\t\t\tICD_R00709\tR00709\t-\nequilibrium constant\t87158.32\t\t\tKGD_R08549\tR08549\t-\nequilibrium constant\t0.58456115\t\t\tSCS_R00405\tR00405\t-\nequilibrium constant\t5756.8025\t\t\tSDH_R02164\tR02164\t-\nequilibrium constant\t3.9855529\t\t\tFUM_R01082\tR01082\t-\nequilibrium constant\t2.0550821e-05\t\t\tMDH_R00342\tR00342\t-\ncatalytic rate constant geometric mean\t336.74881\t\t\tPTS_RPTSsy\tRPTSsy\t1/s\ncatalytic rate constant geometric mean\t351.52722\t\t\tPGI_R02740\tR02740\t1/s\ncatalytic rate constant geometric mean\t342.01719\t\t\tPFK_R04779\tR04779\t1/s\ncatalytic rate constant geometric mean\t350.21938\t\t\tALD_R01070\tR01070\t1/s\ncatalytic rate constant geometric mean\t1593.0333\t\t\tTIM_R01015\tR01015\t1/s\ncatalytic rate constant geometric mean\t207.78475\t\t\tGAP_R01061\tR01061\t1/s\ncatalytic rate constant geometric mean\t628.58758\t\t\tPGK_R01512\tR01512\t1/s\ncatalytic rate constant geometric mean\t212.87372\t\t\tPGM_R01518\tR01518\t1/s\ncatalytic rate constant geometric mean\t219.18653\t\t\tPGH_R00658\tR00658\t1/s\ncatalytic rate constant geometric mean\t262.08633\t\t\tPYK_R00200\tR00200\t1/s\ncatalytic rate constant geometric mean\t50\t\t\tPDH_R00209\tR00209\t1/s\ncatalytic rate constant geometric mean\t258.90943\t\t\tZWF_R00835\tR00835\t1/s\ncatalytic rate constant geometric mean\t676.36182\t\t\tGLH_R02035\tR02035\t1/s\ncatalytic rate constant geometric mean\t245.45289\t\t\tPGD_R01528\tR01528\t1/s\ncatalytic rate constant geometric mean\t700.25747\t\t\tRPI_R01056\tR01056\t1/s\ncatalytic rate constant geometric mean\t417.39389\t\t\tRPE_R01529\tR01529\t1/s\ncatalytic rate constant geometric mean\t162.0034\t\t\tTXT_R01641\tR01641\t1/s\ncatalytic rate constant geometric mean\t153.66126\t\t\tTAL_R08575\tR08575\t1/s\ncatalytic rate constant geometric mean\t213.5239\t\t\tTXT_R01067\tR01067\t1/s\ncatalytic rate constant geometric mean\t160.0121\t\t\tFBP_R00762\tR00762\t1/s\ncatalytic rate constant geometric mean\t152.35089\t\t\tCSN_R00351\tR00351\t1/s\ncatalytic rate constant geometric mean\t164.91618\t\t\tACN_R00351\tR00351\t1/s\ncatalytic rate constant geometric mean\t161.70686\t\t\tACN_R01900\tR01900\t1/s\ncatalytic rate constant geometric mean\t162.26621\t\t\tICD_R00709\tR00709\t1/s\ncatalytic rate constant geometric mean\t350\t\t\tKGD_R08549\tR08549\t1/s\ncatalytic rate constant geometric mean\t147.20709\t\t\tSCS_R00405\tR00405\t1/s\ncatalytic rate constant geometric mean\t198.61156\t\t\tSDH_R02164\tR02164\t1/s\ncatalytic rate constant geometric mean\t290.31925\t\t\tFUM_R01082\tR01082\t1/s\ncatalytic rate constant geometric mean\t200.15941\t\t\tMDH_R00342\tR00342\t1/s\nMichaelis constant\t0.33042278\t_S__Malate\tC00149\tFUM_R01082\tR01082\tmM\nMichaelis constant\t2.6663631\t_S__Malate\tC00149\tMDH_R00342\tR00342\tmM\nMichaelis constant\t0.069053557\tAcetyl_CoA\tC00024\tPDH_R00209\tR00209\tmM\nMichaelis constant\t0.017921588\tAcetyl_CoA\tC00024\tCSN_R00351\tR00351\tmM\nMichaelis constant\t0.25080998\tFumarate\tC00122\tSDH_R02164\tR02164\tmM\nMichaelis constant\t0.23912104\tFumarate\tC00122\tFUM_R01082\tR01082\tmM\nMichaelis constant\t0.016133492\tcis_Aconitate\tC00417\tACN_R00351\tR00351\tmM\nMichaelis constant\t0.028328968\tcis_Aconitate\tC00417\tACN_R01900\tR01900\tmM\nMichaelis constant\t0.052470332\t_6_Phospho_D_gluconate\tC00345\tGLH_R02035\tR02035\tmM\nMichaelis constant\t0.025055527\t_6_Phospho_D_gluconate\tC00345\tPGD_R01528\tR01528\tmM\nMichaelis constant\t17.036954\tOrthophosphate\tC00009\tGAP_R01061\tR01061\tmM\nMichaelis constant\t1.0752209\tOrthophosphate\tC00009\tFBP_R00762\tR00762\tmM\nMichaelis constant\t1.1661682\tOrthophosphate\tC00009\tSCS_R00405\tR00405\tmM\nMichaelis constant\t8.3029617\tPyruvate\tC00022\tPTS_RPTSsy\tRPTSsy\tmM\nMichaelis constant\t0.544472\tPyruvate\tC00022\tPYK_R00200\tR00200\tmM\nMichaelis constant\t0.0095171533\tPyruvate\tC00022\tPDH_R00209\tR00209\tmM\nMichaelis constant\t0.0032900875\tNADPplus\tC00006\tZWF_R00835\tR00835\tmM\nMichaelis constant\t0.023834309\tNADPplus\tC00006\tPGD_R01528\tR01528\tmM\nMichaelis constant\t0.017476612\tNADPH\tC00005\tZWF_R00835\tR00835\tmM\nMichaelis constant\t0.00076152944\tNADPH\tC00005\tPGD_R01528\tR01528\tmM\nMichaelis constant\t0.022709683\tNADH\tC00004\tGAP_R01061\tR01061\tmM\nMichaelis constant\t5.1835889\tNADH\tC00004\tPDH_R00209\tR00209\tmM\nMichaelis constant\t1.1215409\tNADH\tC00004\tICD_R00709\tR00709\tmM\nMichaelis constant\t4.1497508\tNADH\tC00004\tKGD_R08549\tR08549\tmM\nMichaelis constant\t0.0056419464\tNADH\tC00004\tMDH_R00342\tR00342\tmM\nMichaelis constant\t0.093556421\tNADplus\tC00003\tGAP_R01061\tR01061\tmM\nMichaelis constant\t0.037420672\tNADplus\tC00003\tPDH_R00209\tR00209\tmM\nMichaelis constant\t0.07489121\tNADplus\tC00003\tICD_R00709\tR00709\tmM\nMichaelis constant\t0.0024097833\tNADplus\tC00003\tKGD_R08549\tR08549\tmM\nMichaelis constant\t0.17812189\tNADplus\tC00003\tMDH_R00342\tR00342\tmM\nMichaelis constant\t0.11022856\tATP\tC00002\tPFK_R04779\tR04779\tmM\nMichaelis constant\t0.4987383\tATP\tC00002\tPGK_R01512\tR01512\tmM\nMichaelis constant\t5.0510051\tATP\tC00002\tPYK_R00200\tR00200\tmM\nMichaelis constant\t0.028827721\tATP\tC00002\tSCS_R00405\tR00405\tmM\nMichaelis constant\t17.642457\tH2O\tC00001\tPGH_R00658\tR00658\tmM\nMichaelis constant\t0.0011460586\tH2O\tC00001\tGLH_R02035\tR02035\tmM\nMichaelis constant\t0.0093004178\tH2O\tC00001\tFBP_R00762\tR00762\tmM\nMichaelis constant\t7.1026275e-05\tH2O\tC00001\tCSN_R00351\tR00351\tmM\nMichaelis constant\t0.016133496\tH2O\tC00001\tACN_R00351\tR00351\tmM\nMichaelis constant\t0.47304357\tH2O\tC00001\tACN_R01900\tR01900\tmM\nMichaelis constant\t1.0641325\tH2O\tC00001\tFUM_R01082\tR01082\tmM\nMichaelis constant\t1.1215409\t_2_Oxoglutarate\tC00026\tICD_R00709\tR00709\tmM\nMichaelis constant\t3.2004738\t_2_Oxoglutarate\tC00026\tKGD_R08549\tR08549\tmM\nMichaelis constant\t0.028176273\tOxaloacetate\tC00036\tCSN_R00351\tR00351\tmM\nMichaelis constant\t0.025418405\tOxaloacetate\tC00036\tMDH_R00342\tR00342\tmM\nMichaelis constant\t0.017860564\tUbiquinone\tC00399\tSDH_R02164\tR02164\tmM\nMichaelis constant\t0.22608033\tD_Erythrose_4_phosphate\tC00279\tTAL_R08575\tR08575\tmM\nMichaelis constant\t0.15048198\tD_Erythrose_4_phosphate\tC00279\tTXT_R01067\tR01067\tmM\nMichaelis constant\t26.938293\tUbiquinol\tC00390\tSDH_R02164\tR02164\tmM\nMichaelis constant\t0.90058017\tADP\tC00008\tPFK_R04779\tR04779\tmM\nMichaelis constant\t0.11413298\tADP\tC00008\tPGK_R01512\tR01512\tmM\nMichaelis constant\t0.0092514556\tADP\tC00008\tPYK_R00200\tR00200\tmM\nMichaelis constant\t0.2106688\tADP\tC00008\tSCS_R00405\tR00405\tmM\nMichaelis constant\t0.18462556\tIsocitrate\tC00311\tACN_R01900\tR01900\tmM\nMichaelis constant\t2.0282752\tIsocitrate\tC00311\tICD_R00709\tR00709\tmM\nMichaelis constant\t0.13817701\tD_Ribulose_5_phosphate\tC00199\tPGD_R01528\tR01528\tmM\nMichaelis constant\t3.1883622\tD_Ribulose_5_phosphate\tC00199\tRPI_R01056\tR01056\tmM\nMichaelis constant\t0.78731795\tD_Ribulose_5_phosphate\tC00199\tRPE_R01529\tR01529\tmM\nMichaelis constant\t0.31447377\tD_Xylulose_5_phosphate\tC00231\tRPE_R01529\tR01529\tmM\nMichaelis constant\t0.52400341\tD_Xylulose_5_phosphate\tC00231\tTXT_R01641\tR01641\tmM\nMichaelis constant\t0.41150076\tD_Xylulose_5_phosphate\tC00231\tTXT_R01067\tR01067\tmM\nMichaelis constant\t8.302963\tD_Glucose_6_phosphate\tC00092\tPTS_RPTSsy\tRPTSsy\tmM\nMichaelis constant\t0.16462999\tD_Glucose_6_phosphate\tC00092\tPGI_R02740\tR02740\tmM\nMichaelis constant\t0.074248847\tD_Glucose_6_phosphate\tC00092\tZWF_R00835\tR00835\tmM\nMichaelis constant\t0.41058712\t_3_Phospho_D_glyceroyl_phosphate\tC00236\tGAP_R01061\tR01061\tmM\nMichaelis constant\t0.001864773\t_3_Phospho_D_glyceroyl_phosphate\tC00236\tPGK_R01512\tR01512\tmM\nMichaelis constant\t0.0034036491\tCoA\tC00010\tPDH_R00209\tR00209\tmM\nMichaelis constant\t140.79298\tCoA\tC00010\tCSN_R00351\tR00351\tmM\nMichaelis constant\t0.0024097833\tCoA\tC00010\tKGD_R08549\tR08549\tmM\nMichaelis constant\t0.0279607\tCoA\tC00010\tSCS_R00405\tR00405\tmM\nMichaelis constant\t5.1835814\tCO2\tC00011\tPDH_R00209\tR00209\tmM\nMichaelis constant\t33.963915\tCO2\tC00011\tPGD_R01528\tR01528\tmM\nMichaelis constant\t1.1215409\tCO2\tC00011\tICD_R00709\tR00709\tmM\nMichaelis constant\t4.1497508\tCO2\tC00011\tKGD_R08549\tR08549\tmM\nMichaelis constant\t1.7834086\tD_Ribose_5_phosphate\tC00117\tRPI_R01056\tR01056\tmM\nMichaelis constant\t0.53551735\tD_Ribose_5_phosphate\tC00117\tTXT_R01641\tR01641\tmM\nMichaelis constant\t0.15860218\tGlycerone_phosphate\tC00111\tALD_R01070\tR01070\tmM\nMichaelis constant\t1.3627365\tGlycerone_phosphate\tC00111\tTIM_R01015\tR01015\tmM\nMichaelis constant\t0.0012043896\tD_Glucose\tC00031\tPTS_RPTSsy\tRPTSsy\tmM\nMichaelis constant\t1.4037867\tD_Fructose_1_6_bisphosphate\tC00354\tPFK_R04779\tR04779\tmM\nMichaelis constant\t0.10743912\tD_Fructose_1_6_bisphosphate\tC00354\tALD_R01070\tR01070\tmM\nMichaelis constant\t0.012845744\tD_Fructose_1_6_bisphosphate\tC00354\tFBP_R00762\tR00762\tmM\nMichaelis constant\t0.1294366\tD_Glyceraldehyde_3_phosphate\tC00118\tALD_R01070\tR01070\tmM\nMichaelis constant\t0.094072206\tD_Glyceraldehyde_3_phosphate\tC00118\tTIM_R01015\tR01015\tmM\nMichaelis constant\t26.350234\tD_Glyceraldehyde_3_phosphate\tC00118\tGAP_R01061\tR01061\tmM\nMichaelis constant\t4.1028145\tD_Glyceraldehyde_3_phosphate\tC00118\tTXT_R01641\tR01641\tmM\nMichaelis constant\t0.060585998\tD_Glyceraldehyde_3_phosphate\tC00118\tTAL_R08575\tR08575\tmM\nMichaelis constant\t4.9480027\tD_Glyceraldehyde_3_phosphate\tC00118\tTXT_R01067\tR01067\tmM\nMichaelis constant\t0.0012043892\tPhosphoenolpyruvate\tC00074\tPTS_RPTSsy\tRPTSsy\tmM\nMichaelis constant\t0.57266389\tPhosphoenolpyruvate\tC00074\tPGH_R00658\tR00658\tmM\nMichaelis constant\t0.011086831\tPhosphoenolpyruvate\tC00074\tPYK_R00200\tR00200\tmM\nMichaelis constant\t0.0065612853\tCitrate\tC00158\tCSN_R00351\tR00351\tmM\nMichaelis constant\t0.0012133304\tCitrate\tC00158\tACN_R00351\tR00351\tmM\nMichaelis constant\t0.08731214\tSuccinyl_CoA\tC00091\tKGD_R08549\tR08549\tmM\nMichaelis constant\t0.036109571\tSuccinyl_CoA\tC00091\tSCS_R00405\tR00405\tmM\nMichaelis constant\t0.7091538\t_3_Phospho_D_glycerate\tC00197\tPGK_R01512\tR01512\tmM\nMichaelis constant\t0.91866686\t_3_Phospho_D_glycerate\tC00197\tPGM_R01518\tR01518\tmM\nMichaelis constant\t0.39440234\tD_Glucono_1_5_lactone_6_phosphate\tC01236\tZWF_R00835\tR00835\tmM\nMichaelis constant\t0.018351919\tD_Glucono_1_5_lactone_6_phosphate\tC01236\tGLH_R02035\tR02035\tmM\nMichaelis constant\t0.060742291\tD_Fructose_6_phosphate\tC00085\tPGI_R02740\tR02740\tmM\nMichaelis constant\t0.007123593\tD_Fructose_6_phosphate\tC00085\tPFK_R04779\tR04779\tmM\nMichaelis constant\t0.66156727\tD_Fructose_6_phosphate\tC00085\tTAL_R08575\tR08575\tmM\nMichaelis constant\t6.9931545\tD_Fructose_6_phosphate\tC00085\tTXT_R01067\tR01067\tmM\nMichaelis constant\t1.0752207\tD_Fructose_6_phosphate\tC00085\tFBP_R00762\tR00762\tmM\nMichaelis constant\t0.028166708\t_2_Phospho_D_glycerate\tC00631\tPGM_R01518\tR01518\tmM\nMichaelis constant\t0.2484306\t_2_Phospho_D_glycerate\tC00631\tPGH_R00658\tR00658\tmM\nMichaelis constant\t1.6790401\tSuccinate\tC00042\tSCS_R00405\tR00405\tmM\nMichaelis constant\t0.10000395\tSuccinate\tC00042\tSDH_R02164\tR02164\tmM\nMichaelis constant\t3.3697413\tSedoheptulose_7_phosphate\tC05382\tTXT_R01641\tR01641\tmM\nMichaelis constant\t0.19838596\tSedoheptulose_7_phosphate\tC05382\tTAL_R08575\tR08575\tmM\nsubstrate catalytic rate constant\t350\t\t\tPTS_RPTSsy\tRPTSsy\t1/s\nsubstrate catalytic rate constant\t350\t\t\tPGI_R02740\tR02740\t1/s\nsubstrate catalytic rate constant\t350\t\t\tPFK_R04779\tR04779\t1/s\nsubstrate catalytic rate constant\t350\t\t\tALD_R01070\tR01070\t1/s\nsubstrate catalytic rate constant\t2000\t\t\tTIM_R01015\tR01015\t1/s\nsubstrate catalytic rate constant\t268\t\t\tGAP_R01061\tR01061\t1/s\nsubstrate catalytic rate constant\t653.99997\t\t\tPGK_R01512\tR01512\t1/s\nsubstrate catalytic rate constant\t530.00001\t\t\tPGM_R01518\tR01518\t1/s\nsubstrate catalytic rate constant\t78.000004\t\t\tPGH_R00658\tR00658\t1/s\nsubstrate catalytic rate constant\t232.00002\t\t\tPYK_R00200\tR00200\t1/s\nsubstrate catalytic rate constant\t50\t\t\tPDH_R00209\tR00209\t1/s\nsubstrate catalytic rate constant\t174.00001\t\t\tZWF_R00835\tR00835\t1/s\nsubstrate catalytic rate constant\t1899.9999\t\t\tGLH_R02035\tR02035\t1/s\nsubstrate catalytic rate constant\t350.00001\t\t\tPGD_R01528\tR01528\t1/s\nsubstrate catalytic rate constant\t1405.8804\t\t\tRPI_R01056\tR01056\t1/s\nsubstrate catalytic rate constant\t1300\t\t\tRPE_R01529\tR01529\t1/s\nsubstrate catalytic rate constant\t50\t\t\tTXT_R01641\tR01641\t1/s\nsubstrate catalytic rate constant\t50\t\t\tTAL_R08575\tR08575\t1/s\nsubstrate catalytic rate constant\t69.000004\t\t\tTXT_R01067\tR01067\t1/s\nsubstrate catalytic rate constant\t350.00003\t\t\tFBP_R00762\tR00762\t1/s\nsubstrate catalytic rate constant\t67.070773\t\t\tCSN_R00351\tR00351\t1/s\nsubstrate catalytic rate constant\t67.070772\t\t\tACN_R00351\tR00351\t1/s\nsubstrate catalytic rate constant\t50\t\t\tACN_R01900\tR01900\t1/s\nsubstrate catalytic rate constant\t526.60645\t\t\tICD_R00709\tR00709\t1/s\nsubstrate catalytic rate constant\t363.28567\t\t\tKGD_R08549\tR08549\t1/s\nsubstrate catalytic rate constant\t288.15481\t\t\tSCS_R00405\tR00405\t1/s\nsubstrate catalytic rate constant\t245.01569\t\t\tSDH_R02164\tR02164\t1/s\nsubstrate catalytic rate constant\t508.61818\t\t\tFUM_R01082\tR01082\t1/s\nsubstrate catalytic rate constant\t52.218003\t\t\tMDH_R00342\tR00342\t1/s\nproduct catalytic rate constant\t323.99931\t\t\tPTS_RPTSsy\tRPTSsy\t1/s\nproduct catalytic rate constant\t353.0611\t\t\tPGI_R02740\tR02740\t1/s\nproduct catalytic rate constant\t334.21645\t\t\tPFK_R04779\tR04779\t1/s\nproduct catalytic rate constant\t350.43891\t\t\tALD_R01070\tR01070\t1/s\nproduct catalytic rate constant\t1268.8775\t\t\tTIM_R01015\tR01015\t1/s\nproduct catalytic rate constant\t161.09889\t\t\tGAP_R01061\tR01061\t1/s\nproduct catalytic rate constant\t604.16263\t\t\tPGK_R01512\tR01512\t1/s\nproduct catalytic rate constant\t85.500411\t\t\tPGM_R01518\tR01518\t1/s\nproduct catalytic rate constant\t615.93244\t\t\tPGH_R00658\tR00658\t1/s\nproduct catalytic rate constant\t296.0743\t\t\tPYK_R00200\tR00200\t1/s\nproduct catalytic rate constant\t50\t\t\tPDH_R00209\tR00209\t1/s\nproduct catalytic rate constant\t385.25338\t\t\tZWF_R00835\tR00835\t1/s\nproduct catalytic rate constant\t240.77123\t\t\tGLH_R02035\tR02035\t1/s\nproduct catalytic rate constant\t172.13463\t\t\tPGD_R01528\tR01528\t1/s\nproduct catalytic rate constant\t348.79249\t\t\tRPI_R01056\tR01056\t1/s\nproduct catalytic rate constant\t134.01359\t\t\tRPE_R01529\tR01529\t1/s\nproduct catalytic rate constant\t524.90201\t\t\tTXT_R01641\tR01641\t1/s\nproduct catalytic rate constant\t472.23565\t\t\tTAL_R08575\tR08575\t1/s\nproduct catalytic rate constant\t660.76019\t\t\tTXT_R01067\tR01067\t1/s\nproduct catalytic rate constant\t73.153914\t\t\tFBP_R00762\tR00762\t1/s\nproduct catalytic rate constant\t346.06419\t\t\tCSN_R00351\tR00351\t1/s\nproduct catalytic rate constant\t405.50223\t\t\tACN_R00351\tR00351\t1/s\nproduct catalytic rate constant\t522.98214\t\t\tACN_R01900\tR01900\t1/s\nproduct catalytic rate constant\t50\t\t\tICD_R00709\tR00709\t1/s\nproduct catalytic rate constant\t337.2002\t\t\tKGD_R08549\tR08549\t1/s\nproduct catalytic rate constant\t75.202384\t\t\tSCS_R00405\tR00405\t1/s\nproduct catalytic rate constant\t160.99601\t\t\tSDH_R02164\tR02164\t1/s\nproduct catalytic rate constant\t165.71422\t\t\tFUM_R01082\tR01082\t1/s\nproduct catalytic rate constant\t767.24091\t\t\tMDH_R00342\tR00342\t1/s</div></td></tr><tr><td><div>!!SBtab TableName=&#x27;ConcentrationConstraint&#x27; TableType=&#x27;Quantity&#x27; Unit=&#x27;mM&#x27;\t\t\t\t\t\t\n!QuantityType\t!Compound\t!Compound:Identifiers:kegg.compound\t!MinConcentration\t!MaxConcentration\t\t\nconcentration\t_S__Malate\tC00149\t0.001\t10\t\t\nconcentration\tAcetyl_CoA\tC00024\t0.001\t10\t\t\nconcentration\tFumarate\tC00122\t0.001\t10\t\t\nconcentration\tcis_Aconitate\tC00417\t0.001\t10\t\t\nconcentration\t_6_Phospho_D_gluconate\tC00345\t0.001\t10\t\t\nconcentration\tOrthophosphate\tC00009\t10\t10\t\t\nconcentration\tPyruvate\tC00022\t0.001\t10\t\t\nconcentration\tNADPplus\tC00006\t0.1\t0.1\t\t\nconcentration\tNADPH\tC00005\t1\t1\t\t\nconcentration\tNADH\tC00004\t0.1\t0.1\t\t\nconcentration\tNADplus\tC00003\t1\t1\t\t\nconcentration\tATP\tC00002\t5\t5\t\t\nconcentration\tH2O\tC00001\t1\t1\t\t\nconcentration\t_2_Oxoglutarate\tC00026\t0.001\t10\t\t\nconcentration\tOxaloacetate\tC00036\t0.001\t10\t\t\nconcentration\tUbiquinone\tC00399\t0.1\t0.1\t\t\nconcentration\tD_Erythrose_4_phosphate\tC00279\t0.001\t10\t\t\nconcentration\tUbiquinol\tC00390\t0.1\t0.1\t\t\nconcentration\tADP\tC00008\t0.5\t0.5\t\t\nconcentration\tIsocitrate\tC00311\t0.001\t10\t\t\nconcentration\tD_Ribulose_5_phosphate\tC00199\t0.001\t10\t\t\nconcentration\tD_Xylulose_5_phosphate\tC00231\t0.001\t10\t\t\nconcentration\tD_Glucose_6_phosphate\tC00092\t0.001\t10\t\t\nconcentration\t_3_Phospho_D_glyceroyl_phosphate\tC00236\t0.001\t10\t\t\nconcentration\tCoA\tC00010\t1\t1\t\t\nconcentration\tCO2\tC00011\t0.01\t0.01\t\t\nconcentration\tD_Ribose_5_phosphate\tC00117\t0.001\t10\t\t\nconcentration\tGlycerone_phosphate\tC00111\t0.001\t10\t\t\nconcentration\tD_Glucose\tC00031\t0.001\t10\t\t\nconcentration\tD_Fructose_1_6_bisphosphate\tC00354\t0.001\t10\t\t\nconcentration\tD_Glyceraldehyde_3_phosphate\tC00118\t0.001\t10\t\t\nconcentration\tPhosphoenolpyruvate\tC00074\t0.001\t10\t\t\nconcentration\tCitrate\tC00158\t0.001\t10\t\t\nconcentration\tSuccinyl_CoA\tC00091\t0.001\t10\t\t\nconcentration\t_3_Phospho_D_glycerate\tC00197\t0.001\t10\t\t\nconcentration\tD_Glucono_1_5_lactone_6_phosphate\tC01236\t0.001\t10\t\t\nconcentration\tD_Fructose_6_phosphate\tC00085\t0.001\t10\t\t\nconcentration\t_2_Phospho_D_glycerate\tC00631\t0.001\t10\t\t\nconcentration\tSuccinate\tC00042\t0.001\t10\t\t\nconcentration\tSedoheptulose_7_phosphate\tC05382\t0.001\t10\t\t</div></td></tr><tr><td><div>!!SBtab TableName=&#x27;Flux&#x27; TableType=&#x27;Quantity&#x27; Unit=&#x27;mM/s&#x27;\t\t\t\t\t\t\n!QuantityType\t!Reaction\t!Reaction:Identifiers:kegg.reaction\t!Flux\t\t\t\nflux\tPTS_RPTSsy\tRPTSsy\t0.609\t\t\t\nflux\tPGI_R02740\tR02740\t0.504\t\t\t\nflux\tPFK_R04779\tR04779\t0.504\t\t\t\nflux\tALD_R01070\tR01070\t0.504\t\t\t\nflux\tTIM_R01015\tR01015\t0.504\t\t\t\nflux\tGAP_R01061\tR01061\t1.043\t\t\t\nflux\tPGK_R01512\tR01512\t1.043\t\t\t\nflux\tPGM_R01518\tR01518\t1.043\t\t\t\nflux\tPGH_R00658\tR00658\t1.043\t\t\t\nflux\tPYK_R00200\tR00200\t0.819\t\t\t\nflux\tPDH_R00209\tR00209\t0.679\t\t\t\nflux\tZWF_R00835\tR00835\t0.1659\t\t\t\nflux\tGLH_R02035\tR02035\t0.1659\t\t\t\nflux\tPGD_R01528\tR01528\t0.1645\t\t\t\nflux\tRPI_R01056\tR01056\t0.0455\t\t\t\nflux\tRPE_R01529\tR01529\t0.0798\t\t\t\nflux\tTXT_R01641\tR01641\t0.0798\t\t\t\nflux\tTAL_R08575\tR08575\t0.0455\t\t\t\nflux\tTXT_R01067\tR01067\t0.0343\t\t\t\nflux\tFBP_R00762\tR00762\t0\t\t\t\nflux\tCSN_R00351\tR00351\t0.098\t\t\t\nflux\tACN_R00351\tR00351\t0.098\t\t\t\nflux\tACN_R01900\tR01900\t0.098\t\t\t\nflux\tICD_R00709\tR00709\t0.084\t\t\t\nflux\tKGD_R08549\tR08549\t0.0231\t\t\t\nflux\tSCS_R00405\tR00405\t0.0231\t\t\t\nflux\tSDH_R02164\tR02164\t0.077\t\t\t\nflux\tFUM_R01082\tR01082\t0.077\t\t\t\nflux\tMDH_R00342\tR00342\t0.091\t\t\t</div></td></tr><tr><td><div>!!SBtab TableName=&#x27;GibbsEnergyOfFormation&#x27; TableType=&#x27;Quantity&#x27; Unit=&#x27;kJ/mol&#x27; StandardConcentration=&#x27;1mM&#x27;\t\t\t\t\t\t\n!QuantityType\t!Compound\t!Compound:Identifiers:kegg.compound\t!G0\t\t\t\nstandard Gibbs energy of formation\t_S__Malate\tC00149\t-761.84273\t\t\t\nstandard Gibbs energy of formation\tAcetyl_CoA\tC00024\t-791.5391\t\t\t\nstandard Gibbs energy of formation\tFumarate\tC00122\t-524.0709\t\t\t\nstandard Gibbs energy of formation\tcis_Aconitate\tC00417\t-838.46846\t\t\t\nstandard Gibbs energy of formation\t_6_Phospho_D_gluconate\tC00345\t-1112.4622\t\t\t\nstandard Gibbs energy of formation\tOrthophosphate\tC00009\t-461.7503\t\t\t\nstandard Gibbs energy of formation\tPyruvate\tC00022\t-424.39437\t\t\t\nstandard Gibbs energy of formation\tNADPplus\tC00006\t-864.50881\t\t\t\nstandard Gibbs energy of formation\tNADPH\tC00005\t-822.61009\t\t\t\nstandard Gibbs energy of formation\tNADH\tC00004\t-773.63026\t\t\t\nstandard Gibbs energy of formation\tNADplus\tC00003\t-814.20153\t\t\t\nstandard Gibbs energy of formation\tATP\tC00002\t-1037.4009\t\t\t\nstandard Gibbs energy of formation\tH2O\tC00001\t-234.32317\t\t\t\nstandard Gibbs energy of formation\t_2_Oxoglutarate\tC00026\t-657.82696\t\t\t\nstandard Gibbs energy of formation\tOxaloacetate\tC00036\t-775.49508\t\t\t\nstandard Gibbs energy of formation\tUbiquinone\tC00399\t-895.79871\t\t\t\nstandard Gibbs energy of formation\tD_Erythrose_4_phosphate\tC00279\t-593.10689\t\t\t\nstandard Gibbs energy of formation\tUbiquinol\tC00390\t-930.75087\t\t\t\nstandard Gibbs energy of formation\tADP\tC00008\t-855.30091\t\t\t\nstandard Gibbs energy of formation\tIsocitrate\tC00311\t-1073.4788\t\t\t\nstandard Gibbs energy of formation\tD_Ribulose_5_phosphate\tC00199\t-692.9394\t\t\t\nstandard Gibbs energy of formation\tD_Xylulose_5_phosphate\tC00231\t-696.31766\t\t\t\nstandard Gibbs energy of formation\tD_Glucose_6_phosphate\tC00092\t-805.23055\t\t\t\nstandard Gibbs energy of formation\t_3_Phospho_D_glyceroyl_phosphate\tC00236\t-979.45305\t\t\t\nstandard Gibbs energy of formation\tCoA\tC00010\t-758.70717\t\t\t\nstandard Gibbs energy of formation\tCO2\tC00011\t-467.65417\t\t\t\nstandard Gibbs energy of formation\tD_Ribose_5_phosphate\tC00117\t-694.96709\t\t\t\nstandard Gibbs energy of formation\tGlycerone_phosphate\tC00111\t-502.37779\t\t\t\nstandard Gibbs energy of formation\tD_Glucose\tC00031\t-603.67269\t\t\t\nstandard Gibbs energy of formation\tD_Fructose_1_6_bisphosphate\tC00354\t-1003.3543\t\t\t\nstandard Gibbs energy of formation\tD_Glyceraldehyde_3_phosphate\tC00118\t-496.84522\t\t\t\nstandard Gibbs energy of formation\tPhosphoenolpyruvate\tC00074\t-581.67026\t\t\t\nstandard Gibbs energy of formation\tCitrate\tC00158\t-1081.119\t\t\t\nstandard Gibbs energy of formation\tSuccinyl_CoA\tC00091\t-1017.824\t\t\t\nstandard Gibbs energy of formation\t_3_Phospho_D_glycerate\tC00197\t-816.04683\t\t\t\nstandard Gibbs energy of formation\tD_Glucono_1_5_lactone_6_phosphate\tC01236\t-853.47715\t\t\t\nstandard Gibbs energy of formation\tD_Fructose_6_phosphate\tC00085\t-802.72197\t\t\t\nstandard Gibbs energy of formation\t_2_Phospho_D_glycerate\tC00631\t-811.9054\t\t\t\nstandard Gibbs energy of formation\tSuccinate\tC00042\t-537.42793\t\t\t\nstandard Gibbs energy of formation\tSedoheptulose_7_phosphate\tC05382\t-898.29581\t\t\t</div></td></tr><tr><td><div>!!SBtab TableName=&#x27;GibbsEnergyOfReaction&#x27; TableType=&#x27;Quantity&#x27; Unit=&#x27;kJ/mol&#x27; StandardConcentration=&#x27;1mM&#x27;\t\t\t\t\t\t\n!QuantityType\t!Reaction\t!Reaction:Identifiers:kegg.reaction\t!dG0\t!OriginaldG0\t!SumFormula\t\nstandard Gibbs energy of reaction\tPTS_RPTSsy\tRPTSsy\t-44.281981\t-44.281981\tD_Glucose + Phosphoenolpyruvate &lt;=&gt; Pyruvate + D_Glucose_6_phosphate\t\nstandard Gibbs energy of reaction\tPGI_R02740\tR02740\t2.5085872\t2.5085872\tD_Glucose_6_phosphate &lt;=&gt; D_Fructose_6_phosphate\t\nstandard Gibbs energy of reaction\tPFK_R04779\tR04779\t-18.532265\t-18.532265\tATP + D_Fructose_6_phosphate &lt;=&gt; ADP + D_Fructose_1_6_bisphosphate\t\nstandard Gibbs energy of reaction\tALD_R01070\tR01070\t4.1312497\t4.1312497\tD_Fructose_1_6_bisphosphate &lt;=&gt; Glycerone_phosphate + D_Glyceraldehyde_3_phosphate\t\nstandard Gibbs energy of reaction\tTIM_R01015\tR01015\t5.532567\t5.532567\tGlycerone_phosphate &lt;=&gt; D_Glyceraldehyde_3_phosphate\t\nstandard Gibbs energy of reaction\tGAP_R01061\tR01061\t19.713742\t19.713742\tOrthophosphate + NADplus + D_Glyceraldehyde_3_phosphate &lt;=&gt; NADH + _3_Phospho_D_glyceroyl_phosphate\t\nstandard Gibbs energy of reaction\tPGK_R01512\tR01512\t-18.693815\t-18.693815\tADP + _3_Phospho_D_glyceroyl_phosphate &lt;=&gt; ATP + _3_Phospho_D_glycerate\t\nstandard Gibbs energy of reaction\tPGM_R01518\tR01518\t4.141437\t4.141437\t_3_Phospho_D_glycerate &lt;=&gt; _2_Phospho_D_glycerate\t\nstandard Gibbs energy of reaction\tPGH_R00658\tR00658\t-4.0880322\t-4.0880322\t_2_Phospho_D_glycerate &lt;=&gt; H2O + Phosphoenolpyruvate\t\nstandard Gibbs energy of reaction\tPYK_R00200\tR00200\t-24.824142\t-24.824142\tADP + Phosphoenolpyruvate &lt;=&gt; Pyruvate + ATP\t\nstandard Gibbs energy of reaction\tPDH_R00209\tR00209\t-35.52045\t-35.52045\tPyruvate + NADplus + CoA &lt;=&gt; Acetyl_CoA + NADH + CO2\t\nstandard Gibbs energy of reaction\tZWF_R00835\tR00835\t-6.3478707\t-6.3424698\tNADPplus + D_Glucose_6_phosphate &lt;=&gt; NADPH + D_Glucono_1_5_lactone_6_phosphate\t\nstandard Gibbs energy of reaction\tGLH_R02035\tR02035\t-24.661907\t-24.640924\tH2O + D_Glucono_1_5_lactone_6_phosphate &lt;=&gt; _6_Phospho_D_gluconate\t\nstandard Gibbs energy of reaction\tPGD_R01528\tR01528\t-6.2326153\t-6.2273125\t_6_Phospho_D_gluconate + NADPplus &lt;=&gt; NADPH + D_Ribulose_5_phosphate + CO2\t\nstandard Gibbs energy of reaction\tRPI_R01056\tR01056\t-2.0276872\t-2.025962\tD_Ribulose_5_phosphate &lt;=&gt; D_Ribose_5_phosphate\t\nstandard Gibbs energy of reaction\tRPE_R01529\tR01529\t-3.3782613\t-3.375387\tD_Ribulose_5_phosphate &lt;=&gt; D_Xylulose_5_phosphate\t\nstandard Gibbs energy of reaction\tTXT_R01641\tR01641\t-3.8562818\t-3.8530008\tD_Xylulose_5_phosphate + D_Ribose_5_phosphate &lt;=&gt; D_Glyceraldehyde_3_phosphate + Sedoheptulose_7_phosphate\t\nstandard Gibbs energy of reaction\tTAL_R08575\tR08575\t-0.68782225\t-0.68723705\tD_Glyceraldehyde_3_phosphate + Sedoheptulose_7_phosphate &lt;=&gt; D_Erythrose_4_phosphate + D_Fructose_6_phosphate\t\nstandard Gibbs energy of reaction\tTXT_R01067\tR01067\t-10.142634\t-10.134004\tD_Erythrose_4_phosphate + D_Xylulose_5_phosphate &lt;=&gt; D_Glyceraldehyde_3_phosphate + D_Fructose_6_phosphate\t\nstandard Gibbs energy of reaction\tFBP_R00762\tR00762\t-26.794837\t-26.77204\tH2O + D_Fructose_1_6_bisphosphate &lt;=&gt; Orthophosphate + D_Fructose_6_phosphate\t\nstandard Gibbs energy of reaction\tCSN_R00351\tR00351\t-38.468872\t-38.436142\tAcetyl_CoA + H2O + Oxaloacetate &lt;=&gt; CoA + Citrate\t\nstandard Gibbs energy of reaction\tACN_R00351\tR00351\t8.3274039\t8.3203188\tCitrate &lt;=&gt; cis_Aconitate + H2O\t\nstandard Gibbs energy of reaction\tACN_R01900\tR01900\t-0.68712296\t-0.68653834\tcis_Aconitate + H2O &lt;=&gt; Isocitrate\t\nstandard Gibbs energy of reaction\tICD_R00709\tR00709\t-11.431104\t-11.421378\tNADplus + Isocitrate &lt;=&gt; NADH + _2_Oxoglutarate + CO2\t\nstandard Gibbs energy of reaction\tKGD_R08549\tR08549\t-28.372726\t-28.348586\tNADplus + _2_Oxoglutarate + CoA &lt;=&gt; NADH + CO2 + Succinyl_CoA\t\nstandard Gibbs energy of reaction\tSCS_R00405\tR00405\t1.3391207\t1.3379814\tOrthophosphate + ADP + Succinyl_CoA &lt;=&gt; ATP + CoA + Succinate\t\nstandard Gibbs energy of reaction\tSDH_R02164\tR02164\t-21.595126\t-21.576753\tUbiquinone + Succinate &lt;=&gt; Fumarate + Ubiquinol\t\nstandard Gibbs energy of reaction\tFUM_R01082\tR01082\t-3.4486706\t-3.4457364\tFumarate + H2O &lt;=&gt; _S__Malate\t\nstandard Gibbs energy of reaction\tMDH_R00342\tR00342\t26.918927\t26.896024\t_S__Malate + NADplus &lt;=&gt; NADH + Oxaloacetate\t</div></td></tr><tr><td><div>!!SBtab TableName=&#x27;Concentration&#x27; TableType=&#x27;Quantity&#x27; Unit=&#x27;mM&#x27;\t\t\t\t\t\t\n!QuantityType\t!Compound\t!Compound:Identifiers:kegg.compound\t!Concentration\t\t\t\nconcentration\t_S__Malate\tC00149\t1.68\t\t\t\nconcentration\tAcetyl_CoA\tC00024\t0.606\t\t\t\nconcentration\tFumarate\tC00122\t0.115\t\t\t\nconcentration\tcis_Aconitate\tC00417\t0.0161\t\t\t\nconcentration\t_6_Phospho_D_gluconate\tC00345\t3.81\t\t\t\nconcentration\tOrthophosphate\tC00009\tNaN\t\t\t\nconcentration\tPyruvate\tC00022\t0.39\t\t\t\nconcentration\tNADPplus\tC00006\t0.00208\t\t\t\nconcentration\tNADPH\tC00005\t0.121\t\t\t\nconcentration\tNADH\tC00004\t0.0832\t\t\t\nconcentration\tNADplus\tC00003\t2.55\t\t\t\nconcentration\tATP\tC00002\t9.63\t\t\t\nconcentration\tH2O\tC00001\tNaN\t\t\t\nconcentration\t_2_Oxoglutarate\tC00026\t0.443\t\t\t\nconcentration\tOxaloacetate\tC00036\tNaN\t\t\t\nconcentration\tUbiquinone\tC00399\tNaN\t\t\t\nconcentration\tD_Erythrose_4_phosphate\tC00279\tNaN\t\t\t\nconcentration\tUbiquinol\tC00390\tNaN\t\t\t\nconcentration\tADP\tC00008\t0.555\t\t\t\nconcentration\tIsocitrate\tC00311\t0.02\t\t\t\nconcentration\tD_Ribulose_5_phosphate\tC00199\tNaN\t\t\t\nconcentration\tD_Xylulose_5_phosphate\tC00231\tNaN\t\t\t\nconcentration\tD_Glucose_6_phosphate\tC00092\t8.75\t\t\t\nconcentration\t_3_Phospho_D_glyceroyl_phosphate\tC00236\tNaN\t\t\t\nconcentration\tCoA\tC00010\t1.37\t\t\t\nconcentration\tCO2\tC00011\tNaN\t\t\t\nconcentration\tD_Ribose_5_phosphate\tC00117\t1.32\t\t\t\nconcentration\tGlycerone_phosphate\tC00111\t0.374\t\t\t\nconcentration\tD_Glucose\tC00031\t17.363\t\t\t\nconcentration\tD_Fructose_1_6_bisphosphate\tC00354\t15.2\t\t\t\nconcentration\tD_Glyceraldehyde_3_phosphate\tC00118\tNaN\t\t\t\nconcentration\tPhosphoenolpyruvate\tC00074\t0.184\t\t\t\nconcentration\tCitrate\tC00158\t1.96\t\t\t\nconcentration\tSuccinyl_CoA\tC00091\t0.233\t\t\t\nconcentration\t_3_Phospho_D_glycerate\tC00197\t1.54\t\t\t\nconcentration\tD_Glucono_1_5_lactone_6_phosphate\tC01236\tNaN\t\t\t\nconcentration\tD_Fructose_6_phosphate\tC00085\tNaN\t\t\t\nconcentration\t_2_Phospho_D_glycerate\tC00631\tNaN\t\t\t\nconcentration\tSuccinate\tC00042\t0.569\t\t\t\nconcentration\tSedoheptulose_7_phosphate\tC05382\tNaN\t\t\t</div></td></tr><tr><td><div>!!SBtab TableName=&#x27;EnzymeConcentration&#x27; TableType=&#x27;Quantity&#x27; Unit=&#x27;mM&#x27;\t\t\t\t\t\t\n!QuantityType\t!Reaction\t!Reaction:Identifiers:kegg.reaction\t!EnzymeConcentration\t\t\t\nconcentration of enzyme\tPTS_RPTSsy\tRPTSsy\t0.0052772441\t\t\t\nconcentration of enzyme\tPGI_R02740\tR02740\t0.0044271666\t\t\t\nconcentration of enzyme\tPFK_R04779\tR04779\t0.0024618428\t\t\t\nconcentration of enzyme\tALD_R01070\tR01070\tNaN\t\t\t\nconcentration of enzyme\tTIM_R01015\tR01015\t0.0061319332\t\t\t\nconcentration of enzyme\tGAP_R01061\tR01061\t0.024067338\t\t\t\nconcentration of enzyme\tPGK_R01512\tR01512\t0.014506657\t\t\t\nconcentration of enzyme\tPGM_R01518\tR01518\t0.0080626697\t\t\t\nconcentration of enzyme\tPGH_R00658\tR00658\t0.024884366\t\t\t\nconcentration of enzyme\tPYK_R00200\tR00200\t0.0076606892\t\t\t\nconcentration of enzyme\tPDH_R00209\tR00209\t0.0077736742\t\t\t\nconcentration of enzyme\tZWF_R00835\tR00835\t0.0014011675\t\t\t\nconcentration of enzyme\tGLH_R02035\tR02035\t0.0017831643\t\t\t\nconcentration of enzyme\tPGD_R01528\tR01528\t0.013452899\t\t\t\nconcentration of enzyme\tRPI_R01056\tR01056\t0.003620131\t\t\t\nconcentration of enzyme\tRPE_R01529\tR01529\t0.0023565439\t\t\t\nconcentration of enzyme\tTXT_R01641\tR01641\tNaN\t\t\t\nconcentration of enzyme\tTAL_R08575\tR08575\t0.0098996364\t\t\t\nconcentration of enzyme\tTXT_R01067\tR01067\t0.0017969992\t\t\t\nconcentration of enzyme\tFBP_R00762\tR00762\tNaN\t\t\t\nconcentration of enzyme\tCSN_R00351\tR00351\t0.0060373947\t\t\t\nconcentration of enzyme\tACN_R00351\tR00351\t0.0060373947\t\t\t\nconcentration of enzyme\tACN_R01900\tR01900\t0.0060312459\t\t\t\nconcentration of enzyme\tICD_R00709\tR00709\t0.017891595\t\t\t\nconcentration of enzyme\tKGD_R08549\tR08549\tNaN\t\t\t\nconcentration of enzyme\tSCS_R00405\tR00405\tNaN\t\t\t\nconcentration of enzyme\tSDH_R02164\tR02164\tNaN\t\t\t\nconcentration of enzyme\tFUM_R01082\tR01082\t0.0015986991\t\t\t\nconcentration of enzyme\tMDH_R00342\tR00342\t0.024144199\t\t\t\n</div></td></tr></table></div></td></tr><tr><td style="font-weight:bold;vertical-align:top;">todeletename</td><td style="vertical-align:top;">:</td><td><div><table><tr><td><div>ecoli_ccm_aerobic_ModelData_Reaction</div></td></tr><tr><td><div>ecoli_ccm_aerobic_ModelData_Compound</div></td></tr><tr><td><div>ecoli_ccm_aerobic_ModelData_Quantity</div></td></tr><tr><td><div>ecoli_ccm_aerobic_ModelData_Quantity_568</div></td></tr><tr><td><div>ecoli_ccm_aerobic_ModelData_Quantity_498</div></td></tr><tr><td><div>ecoli_ccm_aerobic_ModelData_Quantity_405</div></td></tr><tr><td><div>ecoli_ccm_aerobic_ModelData_Quantity_547</div></td></tr><tr><td><div>ecoli_ccm_aerobic_ModelData_Quantity_705</div></td></tr><tr><td><div>ecoli_ccm_aerobic_ModelData_Quantity_524</div></td></tr></table></div></td></tr></table></div>'
tRp136
sS'etype'
p137
S"<type 'exceptions.IndentationError'>"
p138
sS'date'
p139
S'Wed Nov 19 16:05:49 2014'
p140
sS'response'
p141
g68
(S's\x9e1\x00\x00<div><table><tr><td style="font-weight:bold;vertical-align:top;">body</td><td style="vertical-align:top;">:</td><td><div>&lt;cStringIO.StringO object at 0xb6822900&gt;</div></td></tr><tr><td style="font-weight:bold;vertical-align:top;">cookies</td><td style="vertical-align:top;">:</td><td><div><table><tr><td style="font-weight:bold;vertical-align:top;">session_id_sbtab</td><td style="vertical-align:top;">:</td><td><div>127.0.0.1-46d5a207-de14-4f56-a4ef-8127b5b34ae3<table><tr><td style="font-weight:bold;vertical-align:top;">comment</td><td style="vertical-align:top;">:</td><td><div></div></td></tr><tr><td style="font-weight:bold;vertical-align:top;">domain</td><td style="vertical-align:top;">:</td><td><div></div></td></tr><tr><td style="font-weight:bold;vertical-align:top;">expires</td><td style="vertical-align:top;">:</td><td><div></div></td></tr><tr><td style="font-weight:bold;vertical-align:top;">httponly</td><td style="vertical-align:top;">:</td><td><div></div></td></tr><tr><td style="font-weight:bold;vertical-align:top;">max-age</td><td style="vertical-align:top;">:</td><td><div></div></td></tr><tr><td style="font-weight:bold;vertical-align:top;">path</td><td style="vertical-align:top;">:</td><td><div>/</div></td></tr><tr><td style="font-weight:bold;vertical-align:top;">secure</td><td style="vertical-align:top;">:</td><td><div></div></td></tr><tr><td style="font-weight:bold;vertical-align:top;">version</td><td style="vertical-align:top;">:</td><td><div></div></td></tr></table></div></td></tr></table></div></td></tr><tr><td style="font-weight:bold;vertical-align:top;">delimiters</td><td style="vertical-align:top;">:</td><td><div><table><tr><td><div>{{</div></td></tr><tr><td><div>}}</div></td></tr></table></div></td></tr><tr><td style="font-weight:bold;vertical-align:top;">files</td><td style="vertical-align:top;">:</td><td><div><table></table></div></td></tr><tr><td style="font-weight:bold;vertical-align:top;">flash</td><td style="vertical-align:top;">:</td><td><div></div></td></tr><tr><td style="font-weight:bold;vertical-align:top;">generic_patterns</td><td style="vertical-align:top;">:</td><td><div><table><tr><td><div>*</div></td></tr></table></div></td></tr><tr><td style="font-weight:bold;vertical-align:top;">google_analytics_id</td><td style="vertical-align:top;">:</td><td><div>None</div></td></tr><tr><td style="font-weight:bold;vertical-align:top;">headers</td><td style="vertical-align:top;">:</td><td><div><table><tr><td style="font-weight:bold;vertical-align:top;">X-Powered-By</td><td style="vertical-align:top;">:</td><td><div>web2py</div></td></tr></table></div></td></tr><tr><td style="font-weight:bold;vertical-align:top;">logo</td><td style="vertical-align:top;">:</td><td><div><a class="brand" data-w2p_disable_with="default" href="http://www.web2py.com/"><b>web<span>2</span>py</b>&trade;&nbsp;</a></div></td></tr><tr><td style="font-weight:bold;vertical-align:top;">menu</td><td style="vertical-align:top;">:</td><td><div><table><tr><td><div><table><tr><td><div>Home</div></td></tr><tr><td><div>False</div></td></tr><tr><td><div>/</div></td></tr><tr><td><div><table></table></div></td></tr></table></div></td></tr><tr><td><div><table><tr><td><div><span class="highlighted">web2py</span></div></td></tr><tr><td><div>False</div></td></tr><tr><td><div>http://web2py.com</div></td></tr><tr><td><div><table><tr><td><div><table><tr><td><div>My Sites</div></td></tr><tr><td><div>False</div></td></tr><tr><td><div>/admin/site</div></td></tr></table></div></td></tr><tr><td><div><table><tr><td><div>This App</div></td></tr><tr><td><div>False</div></td></tr><tr><td><div>/admin/design/SBtab</div></td></tr><tr><td><div>[(&lt;lazyT &#x27;Controller&#x27;&gt;, False, &#x27;/admin/edit/SBtab/controllers/default.py&#x27;), (&lt;lazyT &#x27;View&#x27;&gt;, False, &#x27;/admin/edit/SBtab/views/default/validator.html&#x27;), (&lt;lazyT &#x27;Layout&#x27;&gt;, False, &#x27;/admin/edit/SBtab/views/layout.html&#x27;), (&lt;lazyT &#x27;Stylesheet&#x27;&gt;, False, &#x27;/admin/edit/SBtab/static/css/web2py.css&#x27;), (&lt;lazyT &#x27;DB Model&#x27;&gt;, False, &#x27;/admin/edit/SBtab/models/db.py&#x27;), (&lt;lazyT &#x27;Menu Model&#x27;&gt;, False, &#x27;/admin/edit/SBtab/models/menu.py&#x27;), (&lt;lazyT &#x27;Database&#x27;&gt;, False, &#x27;/appadmin&#x27;), (&lt;lazyT &#x27;Errors&#x27;&gt;, False, &#x27;/admin/errors/SBtab&#x27;), (&lt;lazyT &#x27;About&#x27;&gt;, False, &#x27;/admin/about/SBtab&#x27;)]</div></td></tr></table></div></td></tr><tr><td><div><table><tr><td><div>web2py.com</div></td></tr><tr><td><div>False</div></td></tr><tr><td><div>http://www.web2py.com</div></td></tr><tr><td><div>[(&lt;lazyT &#x27;Download&#x27;&gt;, False, &#x27;http://www.web2py.com/examples/default/download&#x27;), (&lt;lazyT &#x27;Support&#x27;&gt;, False, &#x27;http://www.web2py.com/examples/default/support&#x27;), (&lt;lazyT &#x27;Demo&#x27;&gt;, False, &#x27;http://web2py.com/demo_admin&#x27;), (&lt;lazyT &#x27;Quick Examples&#x27;&gt;, False, &#x27;http://web2py.com/examples/default/examples&#x27;), (&lt;lazyT &#x27;FAQ&#x27;&gt;, False, &#x27;http://web2py.com/AlterEgo&#x27;), (&lt;lazyT &#x27;Videos&#x27;&gt;, False, &#x27;http://www.web2py.com/examples/default/videos/&#x27;), (&lt;lazyT &#x27;Free Applications&#x27;&gt;, False, &#x27;http://web2py.com/appliances&#x27;), (&lt;lazyT &#x27;Plugins&#x27;&gt;, False, &#x27;http://web2py.com/plugins&#x27;), (&lt;lazyT &#x27;Layouts&#x27;&gt;, False, &#x27;http://web2py.com/layouts&#x27;), (&lt;lazyT &#x27;Recipes&#x27;&gt;, False, &#x27;http://web2pyslices.com/&#x27;), (&lt;lazyT &#x27;Semantic&#x27;&gt;, False, &#x27;http://web2py.com/semantic&#x27;)]</div></td></tr></table></div></td></tr><tr><td><div><table><tr><td><div>Documentation</div></td></tr><tr><td><div>False</div></td></tr><tr><td><div>http://www.web2py.com/book</div></td></tr><tr><td><div>[(&lt;lazyT &#x27;Preface&#x27;&gt;, False, &#x27;http://www.web2py.com/book/default/chapter/00&#x27;), (&lt;lazyT &#x27;Introduction&#x27;&gt;, False, &#x27;http://www.web2py.com/book/default/chapter/01&#x27;), (&lt;lazyT &#x27;Python&#x27;&gt;, False, &#x27;http://www.web2py.com/book/default/chapter/02&#x27;), (&lt;lazyT &#x27;Overview&#x27;&gt;, False, &#x27;http://www.web2py.com/book/default/chapter/03&#x27;), (&lt;lazyT &#x27;The Core&#x27;&gt;, False, &#x27;http://www.web2py.com/book/default/chapter/04&#x27;), (&lt;lazyT &#x27;The Views&#x27;&gt;, False, &#x27;http://www.web2py.com/book/default/chapter/05&#x27;), (&lt;lazyT &#x27;Database&#x27;&gt;, False, &#x27;http://www.web2py.com/book/default/chapter/06&#x27;), (&lt;lazyT &#x27;Forms and Validators&#x27;&gt;, False, &#x27;http://www.web2py.com/book/default/chapter/07&#x27;), (&lt;lazyT &#x27;Email and SMS&#x27;&gt;, False, &#x27;http://www.web2py.com/book/default/chapter/08&#x27;), (&lt;lazyT &#x27;Access Control&#x27;&gt;, False, &#x27;http://www.web2py.com/book/default/chapter/09&#x27;), (&lt;lazyT &#x27;Services&#x27;&gt;, False, &#x27;http://www.web2py.com/book/default/chapter/10&#x27;), (&lt;lazyT &#x27;Ajax Recipes&#x27;&gt;, False, &#x27;http://www.web2py.com/book/default/chapter/11&#x27;), (&lt;lazyT &#x27;Components and Plugins&#x27;&gt;, False, &#x27;http://www.web2py.com/book/default/chapter/12&#x27;), (&lt;lazyT &#x27;Deployment Recipes&#x27;&gt;, False, &#x27;http://www.web2py.com/book/default/chapter/13&#x27;), (&lt;lazyT &#x27;Other Recipes&#x27;&gt;, False, &#x27;http://www.web2py.com/book/default/chapter/14&#x27;), (&lt;lazyT &#x27;Buy this book&#x27;&gt;, False, &#x27;http://stores.lulu.com/web2py&#x27;)]</div></td></tr></table></div></td></tr><tr><td><div><table><tr><td><div>Community</div></td></tr><tr><td><div>False</div></td></tr><tr><td><div>None</div></td></tr><tr><td><div>[(&lt;lazyT &#x27;Groups&#x27;&gt;, False, &#x27;http://www.web2py.com/examples/default/usergroups&#x27;), (&lt;lazyT &#x27;Twitter&#x27;&gt;, False, &#x27;http://twitter.com/web2py&#x27;), (&lt;lazyT &#x27;Live Chat&#x27;&gt;, False, &#x27;http://webchat.freenode.net/?channels=web2py&#x27;)]</div></td></tr></table></div></td></tr><tr><td><div><table><tr><td><div>Plugins</div></td></tr><tr><td><div>False</div></td></tr><tr><td><div>None</div></td></tr><tr><td><div>[(&#x27;plugin_wiki&#x27;, False, &#x27;http://web2py.com/examples/default/download&#x27;), (&lt;lazyT &#x27;Other Plugins&#x27;&gt;, False, &#x27;http://web2py.com/plugins&#x27;), (&lt;lazyT &#x27;Layout Plugins&#x27;&gt;, False, &#x27;http://web2py.com/layouts&#x27;)]</div></td></tr></table></div></td></tr></table></div></td></tr></table></div></td></tr></table></div></td></tr><tr><td style="font-weight:bold;vertical-align:top;">meta</td><td style="vertical-align:top;">:</td><td><div><table><tr><td style="font-weight:bold;vertical-align:top;">author</td><td style="vertical-align:top;">:</td><td><div>Your Name &lt;you@example.com&gt;</div></td></tr><tr><td style="font-weight:bold;vertical-align:top;">description</td><td style="vertical-align:top;">:</td><td><div>a cool new app</div></td></tr><tr><td style="font-weight:bold;vertical-align:top;">generator</td><td style="vertical-align:top;">:</td><td><div>Web2py Web Framework</div></td></tr><tr><td style="font-weight:bold;vertical-align:top;">keywords</td><td style="vertical-align:top;">:</td><td><div>web2py, python, framework</div></td></tr></table></div></td></tr><tr><td style="font-weight:bold;vertical-align:top;">models_to_run</td><td style="vertical-align:top;">:</td><td><div><table><tr><td><div>^\\w+\\.py$</div></td></tr><tr><td><div>^default/\\w+\\.py$</div></td></tr><tr><td><div>^default/validator/\\w+\\.py$</div></td></tr></table></div></td></tr><tr><td style="font-weight:bold;vertical-align:top;">postprocessing</td><td style="vertical-align:top;">:</td><td><div><table></table></div></td></tr><tr><td style="font-weight:bold;vertical-align:top;">session_client</td><td style="vertical-align:top;">:</td><td><div>127.0.0.1</div></td></tr><tr><td style="font-weight:bold;vertical-align:top;">session_cookie_compression_level</td><td style="vertical-align:top;">:</td><td><div>None</div></td></tr><tr><td style="font-weight:bold;vertical-align:top;">session_cookie_expires</td><td style="vertical-align:top;">:</td><td><div>None</div></td></tr><tr><td style="font-weight:bold;vertical-align:top;">session_cookie_key</td><td style="vertical-align:top;">:</td><td><div>None</div></td></tr><tr><td style="font-weight:bold;vertical-align:top;">session_data_name</td><td style="vertical-align:top;">:</td><td><div>session_data_sbtab</div></td></tr><tr><td style="font-weight:bold;vertical-align:top;">session_file</td><td style="vertical-align:top;">:</td><td><div>&lt;open file &#x27;/home/tlubitz/web2py/applications/SBtab/sessions/127.0.0.1-46d5a207-de14-4f56-a4ef-8127b5b34ae3&#x27;, mode &#x27;rb+&#x27; at 0xb65ec548&gt;</div></td></tr><tr><td style="font-weight:bold;vertical-align:top;">session_filename</td><td style="vertical-align:top;">:</td><td><div>/home/tlubitz/web2py/applications/SBtab/sessions/127.0.0.1-46d5a207-de14-4f56-a4ef-8127b5b34ae3</div></td></tr><tr><td style="font-weight:bold;vertical-align:top;">session_hash</td><td style="vertical-align:top;">:</td><td><div>3038eedc63714fea06678e30918753f1</div></td></tr><tr><td style="font-weight:bold;vertical-align:top;">session_id</td><td style="vertical-align:top;">:</td><td><div>127.0.0.1-46d5a207-de14-4f56-a4ef-8127b5b34ae3</div></td></tr><tr><td style="font-weight:bold;vertical-align:top;">session_id_name</td><td style="vertical-align:top;">:</td><td><div>session_id_sbtab</div></td></tr><tr><td style="font-weight:bold;vertical-align:top;">session_locked</td><td style="vertical-align:top;">:</td><td><div>True</div></td></tr><tr><td style="font-weight:bold;vertical-align:top;">session_masterapp</td><td style="vertical-align:top;">:</td><td><div>SBtab</div></td></tr><tr><td style="font-weight:bold;vertical-align:top;">session_new</td><td style="vertical-align:top;">:</td><td><div>False</div></td></tr><tr><td style="font-weight:bold;vertical-align:top;">session_storage_type</td><td style="vertical-align:top;">:</td><td><div>file</div></td></tr><tr><td style="font-weight:bold;vertical-align:top;">status</td><td style="vertical-align:top;">:</td><td><div>200</div></td></tr><tr><td style="font-weight:bold;vertical-align:top;">subtitle</td><td style="vertical-align:top;">:</td><td><div>customize me!</div></td></tr><tr><td style="font-weight:bold;vertical-align:top;">title</td><td style="vertical-align:top;">:</td><td><div>Sbtab</div></td></tr><tr><td style="font-weight:bold;vertical-align:top;">view</td><td style="vertical-align:top;">:</td><td><div>default/validator.html</div></td></tr></table></div>'
tRp142
sS'locals'
p143
(dp144
S'fromlist'
p145
S'[]'
p146
sS'modules_prefix'
p147
S"'applications.SBtab.modules'"
p148
sS'name'
p149
S"'sbml2sbtab'"
p150
sS'level'
p151
S'-1'
p152
sS'items'
p153
S"['', 'home', 'tlubitz', 'web2py', 'applications', 'SBtab']"
p154
sS'base_importer'
p155
S'<built-in function __import__>'
p156
sS'globals'
p157
S"{'A': <class 'gluon.html.A'>, 'ANY_OF': <class 'gluon.validators.ANY_OF'>, 'Auth': <class 'gluon.tools.Auth'>, 'B': <class 'gluon.html.B'>, 'BEAUTIFY': <class 'gluon.html.BEAUTIFY'>, 'BODY': <class 'gluon.html.BODY'>, 'BR': <class 'gluon.html.BR'>, 'BUTTON': <class 'gluon.html.BUTTON'>, 'CAT': <class 'gluon.html.CAT'>, 'CENTER': <class 'gluon.html.CENTER'>, ...}"
p158
sS'result'
p159
S'None'
p160
sS'oname'
p161
S"'sbml2sbtab'"
p162
sS'itemname'
p163
S"'sbml2sbtab'"
p164
sS'import_tb'
p165
S'None'
p166
sg143
S"{'A': <class 'gluon.html.A'>, 'ANY_OF': <class 'gluon.validators.ANY_OF'>, 'Auth': <class 'gluon.tools.Auth'>, 'B': <class 'gluon.html.B'>, 'BEAUTIFY': <class 'gluon.html.BEAUTIFY'>, 'BODY': <class 'gluon.html.BODY'>, 'BR': <class 'gluon.html.BR'>, 'BUTTON': <class 'gluon.html.BUTTON'>, 'CAT': <class 'gluon.html.CAT'>, 'CENTER': <class 'gluon.html.CENTER'>, ...}"
p167
sS'e2'
p168
S"IndentationError('unexpected indent', ('applicat...b.py', 64, 8, '        build an Enzyme SBtab\\n'))"
p169
sssS'traceback'
p170
S'Traceback (most recent call last):\n  File "/home/tlubitz/web2py/gluon/restricted.py", line 217, in restricted\n    exec ccode in environment\n  File "/home/tlubitz/web2py/applications/SBtab/controllers/default.py", line 14, in <module>\n    import sbml2sbtab\n  File "/home/tlubitz/web2py/gluon/custom_import.py", line 94, in custom_importer\n    raise e2  # there is an error in the module\n  File "applications/SBtab/modules/sbml2sbtab.py", line 64\n    build an Enzyme SBtab\n    ^\nIndentationError: unexpected indent\n'
p171
s.