(dp1
S'output'
p2
S"<type 'exceptions.SyntaxError'> invalid syntax (sbtab2sbml.py, line 50)"
p3
sS'layer'
p4
S'/home/tlubitz/web2py/applications/SBtab/controllers/default.py'
p5
sS'code'
p6
S'# -*- coding: utf-8 -*-\n# this file is released under public domain and you can use without limitations\n\n#########################################################################\n## This is a sample controller\n## - index is the default action of any application\n## - user is required for authentication and authorization\n## - download is for downloading files uploaded in the db (does streaming)\n## - call exposes all registered services (none by default)\n#########################################################################\nimport tablib\nimport tablibIO\nimport validatorSBtab\nimport sbml2sbtab\nimport sbtab2sbml\nimport libsbml\nimport random\nimport splitTabs\nimport makehtml\nimport tablib.packages.xlrd as xlrd\nimport xlrd\n\ndef index():\n    session.ex_warning = None\n    redirect(URL(\'../../static/introduction.html\'))\n\ndef clearsession():\n    session.sbtabs = []\n    session.sbtab_filenames = []\n    session.sbtab_docnames = []\n    session.sbtab_types = []\n    session.name2doc = {}\n    session.todeletename = []\n    session.sbtab_fileformat = []    \n    session.ex_warning = \'\'\n\n    session.sbmls = []\n    session.sbml_filenames = []\n    session.sbml_fileformat = []\n\n    session.definition_file = []\n    session.definition_file_name = []\n\n    redirect(URL(\'../../static/introduction.html\'))\n\ndef validator():\n    """\n    example action using the internationalization operator T and flash\n    rendered by views/default/index.html or views/generic.html\n\n    if you need a simple wiki simple replace the two lines below with:\n    return auth.wiki()\n    """\n    #response.flash = T("Welcome to web2py!")\n    #session.clear()\n    response.title    = T(\'SBtab - Standardised data tables for Systems Biology\')\n    response.subtitle = T(\'Online Validator\')\n\n    lform = SQLFORM.factory(Field(\'File\', \'upload\',uploadfolder="/tmp", label=\'Upload SBtab file (.csv, .xls)\'))\n\n    #update session lists\n    if lform.process().accepted:\n        response.flash = \'form accepted\'\n        session.ex_warning = None\n        try:\n            FileValidClass = validatorSBtab.ValidateFile(request.vars.File.value,request.vars.File.filename)\n            separator      = FileValidClass.checkseparator(request.vars.File.value)\n            (sbtab_list,types,docs) = splitTabs.checkTabs([request.vars.File.value],request.vars.File.filename,separator=separator)\n            if not session.has_key(\'sbtabs\'):\n                session.sbtabs = [\'\\n\'.join(sbtab_list[0])]\n                session.sbtab_filenames = [request.vars.File.filename[:-4]+\'_\'+types[0]]\n                session.sbtab_fileformat = [request.vars.File.filename[-4:]]\n                session.sbtab_docnames  = [docs[0]]\n                session.sbtab_types     = [types[0]]\n                session.todeletename    = [request.vars.File.filename[:-4]+\'_\'+types[0]]\n                session.name2doc = {}\n                session.name2doc[request.vars.File.filename[:-4]+\'_\'+types[0]] = docs[0]\n                if len(sbtab_list) > 1:\n                    for i,sbtab in enumerate(sbtab_list[1:]):\n                        session.sbtabs.append(\'\\n\'.join(sbtab))\n                        fn = request.vars.File.filename[:-4]+\'_\'+types[i]\n                        if not fn in session.sbtab_filenames:\n                            session.sbtab_filenames.append(fn)\n                            session.todeletename.append(fn)\n                            session.name2doc[fn] = docs[i]\n                        else:\n                            random_number = str(random.randint(0,1000))\n                            session.sbtab_filenames.append(fn+\'_\'+random_number)\n                            session.todeletename.append(fn+\'_\'+random_number)\n                            session.name2doc[fn+\'_\'+random_number] = docs[i]\n                        session.sbtab_fileformat.append(request.vars.File.filename[-4:])\n                        session.sbtab_docnames.append(docs[i])\n                        session.sbtab_types.append(types[i])\n            else:\n                if len(sbtab_list) > 1:\n                    for i,sbtab in enumerate(sbtab_list):\n                        session.sbtabs.append(\'\\n\'.join(sbtab))\n                        fn = request.vars.File.filename[:-4]+\'_\'+types[i]\n                        if not fn in session.sbtab_filenames:\n                            session.sbtab_filenames.append(fn)\n                            session.todeletename.append(fn)\n                            session.name2doc[fn] = docs[i]\n                        else:\n                            random_number = str(random.randint(0,1000))\n                            session.sbtab_filenames.append(fn+\'_\'+random_number)\n                            session.todeletename.append(fn+\'_\'+random_number)\n                            session.name2doc[fn+\'_\'+random_number] = docs[i]\n                        session.sbtab_fileformat.append(request.vars.File.filename[-4:])\n                        session.sbtab_docnames.append(docs[i])\n                        session.sbtab_types.append(types[i])\n                else:\n                    session.sbtabs.append(\'\\n\'.join(sbtab_list[0]))\n                    fn = request.vars.File.filename[:-4]+\'_\'+types[0]\n                    if not fn in session.sbtab_filenames:\n                        session.sbtab_filenames.append(fn)\n                        session.todeletename.append(fn)\n                        session.name2doc[fn] = docs[0]\n                    else:\n                        random_number = str(random.randint(0,1000))\n                        session.sbtab_filenames.append(fn+\'_\'+random_number)\n                        session.todeletename.append(fn+\'_\'+random_number)\n                        session.name2doc[fn+\'_\'+random_number] = docs[0]\n                    session.sbtab_fileformat.append(request.vars.File.filename[-4:])\n                    session.sbtab_docnames.append(docs[0])\n                    session.sbtab_types.append(types[0])\n\n\n                #redirect(URL(\'\'))\n        except:\n            session.ex_warning = \'The file that you uploaded is no valid SBtab file. Please only use .csv or .xls format. If it still does not work out, please consult the SBtab specification.\'\n    elif lform.errors:\n        response.flash = \'form has errors\'\n\n    #pushed validation button\n    if request.vars.validate_button:\n        try:\n            FileValidClass = validatorSBtab.ValidateFile(session.sbtabs[int(request.vars.validate_button)],session.sbtab_filenames[int(request.vars.validate_button)])\n            v_output       = FileValidClass.returnOutput()\n            try: separator      = FileValidClass.checkseparator(session.sbtabs[int(request.vars.validate_button)])\n            except: pass\n            if separator: new_tablib_obj = tablibIO.importSetNew(session.sbtabs[int(request.vars.validate_button)],session.sbtab_filenames[int(request.vars.validate_button)],separator=separator)\n            else:\n                xx_filename = session.sbtab_filenames[int(request.vars.validate_button)]+session.sbtab_fileformat[int(request.vars.validate_button)]\n                new_tablib_obj = tablibIO.importSetNew(session.sbtabs[int(request.vars.validate_button)],xx_filename)\n\n            if new_tablib_obj:\n                if session.definition_file:\n                    TableValidClass = validatorSBtab.ValidateTable(new_tablib_obj,session.sbtab_filenames[int(request.vars.validate_button)],session.definition_file[0],session.definition_file_name[0])\n                    for itemx in TableValidClass.returnOutput():\n                        v_output.append(itemx)\n                else:\n                    TableValidClass = validatorSBtab.ValidateTable(new_tablib_obj,session.sbtab_filenames[int(request.vars.validate_button)])\n                    for itemx in TableValidClass.returnOutput():\n                        v_output.append(itemx)\n            sbtab2val  = session.sbtab_filenames[int(request.vars.validate_button)]\n            #redirect(URL(\'\'))\n            session.ex_warning = None\n        except:\n            session.ex_warning = \'Your file is corrupt. Even too corrupt to be validated. Please remove it and see the SBtab specification to try and create a better SBtab file.\'\n            v_output  = \'\'\n            sbtab2val = \'\'\n    else:\n        v_output  = \'\'\n        sbtab2val = \'\'\n\n    #pushed erase button\n    if request.vars.erase_button:\n        del session.sbtabs[int(request.vars.erase_button)]\n        del session.sbtab_filenames[int(request.vars.erase_button)]\n        del session.sbtab_fileformat[int(request.vars.erase_button)]\n        del session.sbtab_docnames[int(request.vars.erase_button)]\n        del session.sbtab_types[int(request.vars.erase_button)]\n        del session.name2doc[session.todeletename[int(request.vars.erase_button)]]\n        del session.todeletename[int(request.vars.erase_button)]\n        session.ex_warning = None\n        redirect(URL(\'\'))\n\n    return dict(UPL_FORM=lform,SBTAB_LIST=session.sbtabs,NAME_LIST=session.sbtab_filenames,V_OUTPUT=v_output,SBTAB2VAL=sbtab2val,DOC_NAMES=session.sbtab_docnames,NAME2DOC=session.name2doc,EXWARNING=session.ex_warning)\n\ndef converter():\n    response.title = T(\'SBtab - Standardised data tables for Systems Biology\')\n    response.subtitle = T(\'SBML / SBtab Conversion\')\n\n    #Form for SBtab files\n    lform = SQLFORM.factory(Field(\'File\', \'upload\',uploadfolder="/tmp", label=\'Upload SBtab file to convert (.csv, .xls)\'))\n\n    #update session lists\n    if lform.process(formname=\'form_one\').accepted:\n            response.flash = \'form accepted\'\n            try:\n                FileValidClass = validatorSBtab.ValidateFile(request.vars.File.value,request.vars.File.filename)\n                separator      = FileValidClass.checkseparator(request.vars.File.value)            \n                (sbtab_list,types,docs) = splitTabs.checkTabs([request.vars.File.value],request.vars.File.filename,separator=separator)\n                if not session.has_key(\'sbtabs\'):\n                    session.sbtabs = [\'\\n\'.join(sbtab_list[0])]\n                    session.sbtab_filenames = [request.vars.File.filename[:-4]+\'_\'+types[0]]\n                    session.sbtab_fileformat = [request.vars.File.filename[-4:]]\n                    session.sbtab_docnames  = [docs[0]]\n                    session.sbtab_types     = [types[0]]\n                    session.todeletename    = [request.vars.File.filename[:-4]+\'_\'+types[0]]\n                    session.name2doc = {}\n                    session.name2doc[request.vars.File.filename[:-4]+\'_\'+types[0]] = docs[0]\n                    if len(sbtab_list) > 1:\n                        for i,sbtab in enumerate(sbtab_list[1:]):\n                            session.sbtabs.append(\'\\n\'.join(sbtab))\n                            fn = request.vars.File.filename[:-4]+\'_\'+types[i]\n                            if not fn in session.sbtab_filenames:\n                                session.sbtab_filenames.append(fn)\n                                session.todeletename.append(fn)\n                                session.name2doc[fn] = docs[i]\n                            else:\n                                random_number = str(random.randint(0,1000))\n                                session.sbtab_filenames.append(fn+\'_\'+random_number)\n                                session.todeletename.append(fn+\'_\'+random_number)\n                                session.name2doc[fn+\'_\'+random_number] = docs[i]\n                            session.sbtab_fileformat.append(request.vars.File.filename[-4:])\n                            session.sbtab_docnames.append(docs[i])\n                            session.sbtab_types.append(types[i])\n                else:\n                    #workbook = xlrd.open_workbook(request.vars.File.filename,file_contents=request.vars.File.value)\n                    #print workbook.sheet_names()\n\n\n                    if len(sbtab_list) > 1:\n                        for i,sbtab in enumerate(sbtab_list):\n                            session.sbtabs.append(\'\\n\'.join(sbtab))\n                            fn = request.vars.File.filename[:-4]+\'_\'+types[i]\n                            if not fn in session.sbtab_filenames:\n                                session.sbtab_filenames.append(fn)\n                                session.todeletename.append(fn)\n                                session.name2doc[fn] = docs[i]\n                            else:\n                                random_number = str(random.randint(0,1000))\n                                session.sbtab_filenames.append(fn+\'_\'+random_number)\n                                session.todeletename.append(fn+\'_\'+random_number)\n                                session.name2doc[fn+\'_\'+random_number] = docs[i]\n                            session.sbtab_fileformat.append(request.vars.File.filename[-4:])\n                            session.sbtab_docnames.append(docs[i])\n                            session.sbtab_types.append(types[i])\n                    else:\n                        session.sbtabs.append(\'\\n\'.join(sbtab_list[0]))\n                        fn = request.vars.File.filename[:-4]+\'_\'+types[0]\n                        if not fn in session.sbtab_filenames:\n                            session.sbtab_filenames.append(fn)\n                            session.todeletename.append(fn)\n                            session.name2doc[fn] = docs[0]\n                        else:\n                            random_number = str(random.randint(0,1000))\n                            session.sbtab_filenames.append(fn+\'_\'+random_number)\n                            session.todeletename.append(fn+\'_\'+random_number)\n                            session.name2doc[fn+\'_\'+random_number] = docs[0]\n                        session.sbtab_fileformat.append(request.vars.File.filename[-4:])\n                        session.sbtab_docnames.append(docs[0])\n                        session.sbtab_types.append(types[0])\n            except:\n                session.ex_warning = \'The file that you uploaded is no SBtab file. Please only use .csv or .xls format. If it still does not work out, please consult the SBtab specification.\'\n    elif lform.errors:\n        response.flash = \'form has errors\'\n\n    # convert sbtab2sbml button is pushed\n    if request.vars.c2sbml_button:\n        #try:\n            fn = session.sbtab_filenames[int(request.vars.c2sbml_button)]+session.sbtab_fileformat[int(request.vars.c2sbml_button)]\n            sbtab_document = sbtab2sbml.SBtabDocument(session.sbtabs[int(request.vars.c2sbml_button)],fn)\n            new_sbml       = sbtab_document.makeSBML()\n            if not session.has_key(\'sbmls\'):\n                session.sbmls = [new_sbml]\n                session.sbml_filenames = [session.sbtab_filenames[int(request.vars.c2sbml_button)]+\'_SBML\']\n            else:\n                session.sbmls.append(new_sbml)\n                fn = session.sbtab_filenames[int(request.vars.c2sbml_button)]+\'_SBML\'\n                if not fn in session.sbml_filenames:\n                    session.sbml_filenames.append(fn)\n                else:\n                    random_number = str(random.randint(0,1000))\n                    session.sbml_filenames.append(fn+\'_\'+random_number)\n        #except:\n        #    session.ex_warning = \'The SBtab file could not be converted to SBML. Please check whether you have a valid Reaction SBtab file.\'\n\n    if request.vars.dl_sbtab_button:\n        downloader_sbtab()\n\n    if request.vars.convert_all_button:\n        try:\n            convert_document = session.sbtab_docnames[int(request.vars.convert_all_button)]\n            merged_sbtabs    = []\n            for i,docname in enumerate(session.sbtab_docnames):\n                if docname == convert_document:\n                    merged_sbtabs.append(session.sbtabs[i])\n            sbtab_document = sbtab2sbml.SBtabDocument(merged_sbtabs,\'merged_unknown.tsv\',tabs=2)\n            new_sbml       = sbtab_document.makeSBML()\n            if not session.has_key(\'sbmls\'):\n                session.sbmls = [new_sbml]\n                session.sbml_filenames = [convert_document]\n            else:\n                session.sbmls.append(new_sbml)\n                fn = convert_document\n                if not fn in session.sbml_filenames:\n                    session.sbml_filenames.append(fn)\n                else:\n                    random_number = str(random.randint(0,1000))\n                    session.sbml_filenames.append(fn+\'_\'+random_number)\n        except:\n            session.ex_warning = \'The SBtab file could not be converted to SBML. Please check whether you have a valid Reaction SBtab file.\'\n\n    #Form for SBML files\n    rform = SQLFORM.factory(Field(\'File\', \'upload\',uploadfolder="/tmp", label=\'Upload SBML file to convert (.xml)\'))\n\n    if rform.process(formname=\'form_two\').accepted:\n        response.flash = \'form accepted\'\n        if not session.has_key(\'sbmls\'):\n            session.sbmls = [request.vars.File.value]\n            session.sbml_filenames = [request.vars.File.filename]\n        else:\n            session.sbmls.append(request.vars.File.value)\n            fn = request.vars.File.filename\n            if not fn in session.sbml_filenames:\n                session.sbml_filenames.append(fn)\n            else:\n                random_number = str(random.randint(0,1000))\n                session.sbml_filenames.append(fn+\'_\'+random_number)\n    elif rform.errors:\n        response.flash = \'form has errors\'\n\n    if request.vars.erase_sbml_button:\n        del session.sbmls[int(request.vars.erase_sbml_button)]\n        del session.sbml_filenames[int(request.vars.erase_sbml_button)]\n        session.ex_warning = None\n        redirect(URL(\'\'))\n\n    # convert sbml2sbtab button is pushed\n    if request.vars.c2sbtab_button:\n        try:\n            reader     = libsbml.SBMLReader()\n            sbml_model = reader.readSBMLFromString(session.sbmls[int(request.vars.c2sbtab_button)])\n            ConvSBMLClass = sbml2sbtab.SBMLDocument(sbml_model.getModel(),session.sbml_filenames[int(request.vars.c2sbtab_button)])\n            tab_output    = ConvSBMLClass.makeSBtabs()\n            # append generated SBtabs to session variables\n            for SBtab in tab_output:\n                if not session.has_key(\'sbtabs\'):\n                    session.sbtabs = [SBtab[0]]\n                    session.sbtab_filenames = [session.sbml_filenames[int(request.vars.c2sbtab_button)].rstrip(\'.xml\')+\'_\'+SBtab[1]]\n                    session.sbtab_fileformat = [\'.csv\']\n                    session.sbtab_docnames = [session.sbml_filenames[int(request.vars.c2sbtab_button)].rstrip(\'.xml\')]\n                    session.sbtab_types    = [SBtab[1]]\n                    session.todeletename   = [session.sbml_filenames[int(request.vars.c2sbtab_button)].rstrip(\'.xml\')+\'_\'+SBtab[1]]\n                    session.name2doc = {}\n                    session.name2doc[session.sbml_filenames[int(request.vars.c2sbtab_button)].rstrip(\'.xml\')+\'_\'+SBtab[1]] = session.sbml_filenames[int(request.vars.c2sbtab_button)].rstrip(\'.xml\')\n                else:\n                    session.sbtabs.append(SBtab[0])\n                    fn = session.sbml_filenames[int(request.vars.c2sbtab_button)].rstrip(\'.xml\')+\'_\'+SBtab[1]\n                    if not fn in session.sbtab_filenames:\n                        session.sbtab_filenames.append(fn)\n                        session.todeletename.append(fn)\n                        session.name2doc[fn] = session.sbml_filenames[int(request.vars.c2sbtab_button)].rstrip(\'.xml\')      #needs +\'_\'+SBtab[1]??\n                    else:\n                        random_number = str(random.randint(0,1000))\n                        session.sbtab_filenames.append(fn+\'_\'+random_number)\n                        session.todeletename.append(fn+\'_\'+random_number)\n                        session.name2doc[fn+\'_\'+random_number] = session.sbml_filenames[int(request.vars.c2sbtab_button)].rstrip(\'.xml\')      #needs +\'_\'+SBtab[1]??\n                    session.sbtab_fileformat.append(\'.csv\')\n                    session.sbtab_docnames.append(session.sbml_filenames[int(request.vars.c2sbtab_button)].rstrip(\'.xml\'))\n                    session.sbtab_types.append(SBtab[1])\n        except:\n            session.ex_warning = \'The SBML file could not be converted to SBtab. Please check whether your SBML file is valid.\'\n\n    if request.vars.erase_sbtab_button:\n        del session.sbtabs[int(request.vars.erase_sbtab_button)]\n        del session.sbtab_filenames[int(request.vars.erase_sbtab_button)]\n        del session.sbtab_fileformat[int(request.vars.erase_sbtab_button)]\n        del session.sbtab_docnames[int(request.vars.erase_sbtab_button)]\n        del session.sbtab_types[int(request.vars.erase_sbtab_button)]\n        del session.name2doc[session.todeletename[int(request.vars.erase_sbtab_button)]]\n        del session.todeletename[int(request.vars.erase_sbtab_button)]\n        session.ex_warning = None\n        redirect(URL(\'\'))\n\n    if request.vars.dl_sbml_button:\n        downloader_sbml()\n        \n    return dict(UPL_FORML=lform,UPL_FORMR=rform,SBTAB_LIST=session.sbtabs,SBML_LIST=session.sbmls,NAME_LIST_SBTAB=session.sbtab_filenames,NAME_LIST_SBML=session.sbml_filenames,DOC_NAMES=session.sbtab_docnames,NAME2DOC=session.name2doc,EXWARNING=session.ex_warning,TYPES=session.sbtab_types)\n\n\ndef def_files():\n    \'\'\'\n    upload your own definition SBtab\n    \'\'\'\n    response.title = T(\'SBtab - Standardised data tables for Systems Biology\')\n    response.subtitle = T(\'Upload your own definition files\')\n\n    dform = SQLFORM.factory(Field(\'File\', \'upload\',uploadfolder="/tmp", label=\'Upload definition file (.csv, .tsv)\'))\n\n    #update session lists\n    if dform.process().accepted:\n        response.flash = \'form accepted\'\n        session.definition_file      = [request.vars.File.value]\n        session.definition_file_name = [request.vars.File.filename]\n    elif dform.errors:\n        response.flash = \'form has errors\'\n\n    #pushed erase button\n    if request.vars.erase_def_button:\n        del session.definition_file[int(request.vars.erase_def_button)]\n        del session.definition_file_name[int(request.vars.erase_def_button)]\n        redirect(URL(\'\'))\n\n    return dict(UPL_FORM=dform,DEF_FILE=session.definition_file,DEF_NAME=session.definition_file_name)\n\ndef downloader_sbtab():\n        response.headers[\'Content-Type\'] = \'text/csv\'\n        if not session.sbtab_filenames[int(request.vars.dl_sbtab_button)].endswith(\'.csv\') and not session.sbtab_filenames[int(request.vars.dl_sbtab_button)].endswith(\'.tsv\'):\n            attachment = \'attachment;filename=\' + session.sbtab_filenames[int(request.vars.dl_sbtab_button)]+\'.csv\'\n        else: attachment = \'attachment;filename=\' + session.sbtab_filenames[int(request.vars.dl_sbtab_button)]\n        response.headers[\'Content-Disposition\'] = attachment\n        \n        content = session.sbtabs[int(request.vars.dl_sbtab_button)]\n        raise HTTP(200,str(content),\n                   **{\'Content-Type\':\'text/csv\',\n                      \'Content-Disposition\':attachment + \';\'})\n\ndef downloader_sbml():\n        response.headers[\'Content-Type\'] = \'text/xml\'\n        if not session.sbml_filenames[int(request.vars.dl_sbml_button)].endswith(\'.xml\'):\n            attachment = \'attachment;filename=\' + session.sbml_filenames[int(request.vars.dl_sbml_button)]+\'.xml\'\n        else: attachment = \'attachment;filename=\' + session.sbml_filenames[int(request.vars.dl_sbml_button)]\n        response.headers[\'Content-Disposition\'] = attachment\n        \n        content = session.sbmls[int(request.vars.dl_sbml_button)]\n        raise HTTP(200,str(content),\n                   **{\'Content-Type\':\'text/xml\',\n                      \'Content-Disposition\':attachment + \';\'})\n\ndef show_sbtab_xls(def_file,def_file_name):\n    \'\'\'\n    displays xls SBtab file\n    \'\'\'\n    xls_sbtab = session.sbtabs[int(request.args(0))]\n    file_name = session.sbtab_filenames[int(request.args(0))]\n    sbtype    = session.sbtab_types[int(request.args(0))]\n\n    return makehtml.xls2html(xls_sbtab,file_name,sbtype,def_file,def_file_name)\n\ndef show_sbtab():\n    \'\'\'\n    displays a given SBtab file in html\n    \'\'\'\n    sbtab_file = session.sbtabs[int(request.args(0))]\n    file_name  = session.sbtab_filenames[int(request.args(0))]\n    sbtype     = session.sbtab_types[int(request.args(0))]\n      \n    try:\n        FileValidClass = validatorSBtab.ValidateFile(sbtab_file,file_name)\n        delimiter      = FileValidClass.checkseparator(sbtab_file)\n    except:\n        delimiter = None\n        \n    try:\n        def_file      = session.definition_file\n        def_file_name = session.definition_file_name\n    except:\n        def_file      = None\n        def_file_name = None\n\n    if delimiter: return makehtml.csv2html(sbtab_file,file_name,delimiter,sbtype,def_file,def_file_name)\n    else: return show_sbtab_xls(def_file,def_file_name)\n\ndef show_sbml():\n    \'\'\'\n    displays a given SBML file\n    \'\'\'\n    return makehtml.xml2html(session.sbmls[int(request.args(0))])\n\ndef user():\n    """\n    exposes:\n    http://..../[app]/default/user/login\n    http://..../[app]/default/user/logout\n    http://..../[app]/default/user/register\n    http://..../[app]/default/user/profile\n    http://..../[app]/default/user/retrieve_password\n    http://..../[app]/default/user/change_password\n    http://..../[app]/default/user/manage_users (requires membership in \n    use @auth.requires_login()\n        @auth.requires_membership(\'group name\')\n        @auth.requires_permission(\'read\',\'table name\',record_id)\n    to decorate functions that need access control\n    """\n    return dict(form=auth())\n\n@cache.action()\ndef download():\n    """\n    allows downloading of uploaded files\n    http://..../[app]/default/download/[filename]\n    """\n    return response.download(request, db)\n\n\ndef call():\n    """\n    exposes services. for example:\n    http://..../[app]/default/call/jsonrpc\n    decorate with @services.jsonrpc the functions to expose\n    supports xml, json, xmlrpc, jsonrpc, amfrpc, rss, csv\n    """\n    return service()\n\n\n@auth.requires_signature()\ndef data():\n    """\n    http://..../[app]/default/data/tables\n    http://..../[app]/default/data/create/[table]\n    http://..../[app]/default/data/read/[table]/[id]\n    http://..../[app]/default/data/update/[table]/[id]\n    http://..../[app]/default/data/delete/[table]/[id]\n    http://..../[app]/default/data/select/[table]\n    http://..../[app]/default/data/search/[table]\n    but URLs must be signed, i.e. linked with\n      A(\'table\',_href=URL(\'data/tables\',user_signature=True))\n    or with the signed load operator\n      LOAD(\'default\',\'data.load\',args=\'tables\',ajax=True,user_signature=True)\n    """\n    return dict(form=crud())\n\nresponse._vars=response._caller(converter)\n'
p7
sS'snapshot'
p8
(dp9
S'exception'
p10
(dp11
S'__getslice__'
p12
S"<method-wrapper '__getslice__' of exceptions.SyntaxError object>"
p13
sS'text'
p14
S"'        for row in xls_file.nrows):\\n'"
p15
sS'__str__'
p16
S"<method-wrapper '__str__' of exceptions.SyntaxError object>"
p17
sS'__reduce__'
p18
S'<built-in method __reduce__ of exceptions.SyntaxError object>'
p19
sS'__dict__'
p20
S'{}'
p21
sS'__sizeof__'
p22
S'<built-in method __sizeof__ of exceptions.SyntaxError object>'
p23
sS'__init__'
p24
S"<method-wrapper '__init__' of exceptions.SyntaxError object>"
p25
sS'__setattr__'
p26
S"<method-wrapper '__setattr__' of exceptions.SyntaxError object>"
p27
sS'__reduce_ex__'
p28
S'<built-in method __reduce_ex__ of exceptions.SyntaxError object>'
p29
sS'__new__'
p30
S'<built-in method __new__ of type object>'
p31
sS'__format__'
p32
S'<built-in method __format__ of exceptions.SyntaxError object>'
p33
sS'__class__'
p34
S"<type 'exceptions.SyntaxError'>"
p35
sS'filename'
p36
S"'applications/SBtab/modules/sbtab2sbml.py'"
p37
sS'lineno'
p38
S'50'
p39
sS'msg'
p40
S"'invalid syntax'"
p41
sS'__doc__'
p42
S"'Invalid syntax.'"
p43
sS'__getitem__'
p44
S"<method-wrapper '__getitem__' of exceptions.SyntaxError object>"
p45
sS'__setstate__'
p46
S'<built-in method __setstate__ of exceptions.SyntaxError object>'
p47
sS'__getattribute__'
p48
S"<method-wrapper '__getattribute__' of exceptions.SyntaxError object>"
p49
sS'print_file_and_line'
p50
S'None'
p51
sS'args'
p52
S"('invalid syntax', ('applications/SBtab/modules/sbtab2sbml.py', 50, 34, '        for row in xls_file.nrows):\\n'))"
p53
sS'__subclasshook__'
p54
S'<built-in method __subclasshook__ of type object>'
p55
sS'offset'
p56
S'34'
p57
sS'__unicode__'
p58
S'<built-in method __unicode__ of exceptions.SyntaxError object>'
p59
sS'__delattr__'
p60
S"<method-wrapper '__delattr__' of exceptions.SyntaxError object>"
p61
sS'__repr__'
p62
S"<method-wrapper '__repr__' of exceptions.SyntaxError object>"
p63
sS'__hash__'
p64
S"<method-wrapper '__hash__' of exceptions.SyntaxError object>"
p65
ssS'evalue'
p66
S'invalid syntax (sbtab2sbml.py, line 50)'
p67
sS'request'
p68
cgluon.html
XML_unpickle
p69
(S's\x11R\x00\x00<div><table><tr><td style="font-weight:bold;vertical-align:top;">ajax</td><td style="vertical-align:top;">:</td><td><div>False</div></td></tr><tr><td style="font-weight:bold;vertical-align:top;">application</td><td style="vertical-align:top;">:</td><td><div>SBtab</div></td></tr><tr><td style="font-weight:bold;vertical-align:top;">args</td><td style="vertical-align:top;">:</td><td><div><table></table></div></td></tr><tr><td style="font-weight:bold;vertical-align:top;">cid</td><td style="vertical-align:top;">:</td><td><div>None</div></td></tr><tr><td style="font-weight:bold;vertical-align:top;">client</td><td style="vertical-align:top;">:</td><td><div>127.0.0.1</div></td></tr><tr><td style="font-weight:bold;vertical-align:top;">controller</td><td style="vertical-align:top;">:</td><td><div>default</div></td></tr><tr><td style="font-weight:bold;vertical-align:top;">cookies</td><td style="vertical-align:top;">:</td><td><div><table><tr><td style="font-weight:bold;vertical-align:top;">session_id_admin</td><td style="vertical-align:top;">:</td><td><div>127.0.0.1-ece6dc41-d206-482d-b5b1-e1e6e65863cb<table><tr><td style="font-weight:bold;vertical-align:top;">comment</td><td style="vertical-align:top;">:</td><td><div></div></td></tr><tr><td style="font-weight:bold;vertical-align:top;">domain</td><td style="vertical-align:top;">:</td><td><div></div></td></tr><tr><td style="font-weight:bold;vertical-align:top;">expires</td><td style="vertical-align:top;">:</td><td><div></div></td></tr><tr><td style="font-weight:bold;vertical-align:top;">httponly</td><td style="vertical-align:top;">:</td><td><div></div></td></tr><tr><td style="font-weight:bold;vertical-align:top;">max-age</td><td style="vertical-align:top;">:</td><td><div></div></td></tr><tr><td style="font-weight:bold;vertical-align:top;">path</td><td style="vertical-align:top;">:</td><td><div></div></td></tr><tr><td style="font-weight:bold;vertical-align:top;">secure</td><td style="vertical-align:top;">:</td><td><div></div></td></tr><tr><td style="font-weight:bold;vertical-align:top;">version</td><td style="vertical-align:top;">:</td><td><div></div></td></tr></table></div></td></tr><tr><td style="font-weight:bold;vertical-align:top;">session_id_sbtab</td><td style="vertical-align:top;">:</td><td><div>127.0.0.1-7f013fb8-d8ef-4bc2-8487-6dad284de278<table><tr><td style="font-weight:bold;vertical-align:top;">comment</td><td style="vertical-align:top;">:</td><td><div></div></td></tr><tr><td style="font-weight:bold;vertical-align:top;">domain</td><td style="vertical-align:top;">:</td><td><div></div></td></tr><tr><td style="font-weight:bold;vertical-align:top;">expires</td><td style="vertical-align:top;">:</td><td><div></div></td></tr><tr><td style="font-weight:bold;vertical-align:top;">httponly</td><td style="vertical-align:top;">:</td><td><div></div></td></tr><tr><td style="font-weight:bold;vertical-align:top;">max-age</td><td style="vertical-align:top;">:</td><td><div></div></td></tr><tr><td style="font-weight:bold;vertical-align:top;">path</td><td style="vertical-align:top;">:</td><td><div></div></td></tr><tr><td style="font-weight:bold;vertical-align:top;">secure</td><td style="vertical-align:top;">:</td><td><div></div></td></tr><tr><td style="font-weight:bold;vertical-align:top;">version</td><td style="vertical-align:top;">:</td><td><div></div></td></tr></table></div></td></tr></table></div></td></tr><tr><td style="font-weight:bold;vertical-align:top;">env</td><td style="vertical-align:top;">:</td><td><div><table><tr><td style="font-weight:bold;vertical-align:top;">HTTP_ACCEPT</td><td style="vertical-align:top;">:</td><td><div>text/html,application/xhtml+xml,application/xml;q=0.9,image/webp,*/*;q=0.8</div></td></tr><tr><td style="font-weight:bold;vertical-align:top;">HTTP_ACCEPT_ENCODING</td><td style="vertical-align:top;">:</td><td><div>gzip,deflate,sdch</div></td></tr><tr><td style="font-weight:bold;vertical-align:top;">HTTP_ACCEPT_LANGUAGE</td><td style="vertical-align:top;">:</td><td><div>en-US,en;q=0.8,de;q=0.6</div></td></tr><tr><td style="font-weight:bold;vertical-align:top;">HTTP_CACHE_CONTROL</td><td style="vertical-align:top;">:</td><td><div>max-age=0</div></td></tr><tr><td style="font-weight:bold;vertical-align:top;">HTTP_CONNECTION</td><td style="vertical-align:top;">:</td><td><div>keep-alive</div></td></tr><tr><td style="font-weight:bold;vertical-align:top;">HTTP_COOKIE</td><td style="vertical-align:top;">:</td><td><div>session_id_admin=127.0.0.1-ece6dc41-d206-482d-b5b1-e1e6e65863cb; session_id_sbtab=127.0.0.1-7f013fb8-d8ef-4bc2-8487-6dad284de278</div></td></tr><tr><td style="font-weight:bold;vertical-align:top;">HTTP_HOST</td><td style="vertical-align:top;">:</td><td><div>127.0.0.1:8000</div></td></tr><tr><td style="font-weight:bold;vertical-align:top;">HTTP_USER_AGENT</td><td style="vertical-align:top;">:</td><td><div>Mozilla/5.0 (X11; Linux x86_64) AppleWebKit/537.36 (KHTML, like Gecko) Ubuntu Chromium/38.0.2125.111 Chrome/38.0.2125.111 Safari/537.36</div></td></tr><tr><td style="font-weight:bold;vertical-align:top;">PATH_INFO</td><td style="vertical-align:top;">:</td><td><div>/converter</div></td></tr><tr><td style="font-weight:bold;vertical-align:top;">QUERY_STRING</td><td style="vertical-align:top;">:</td><td><div></div></td></tr><tr><td style="font-weight:bold;vertical-align:top;">REMOTE_ADDR</td><td style="vertical-align:top;">:</td><td><div>127.0.0.1</div></td></tr><tr><td style="font-weight:bold;vertical-align:top;">REMOTE_PORT</td><td style="vertical-align:top;">:</td><td><div>56473</div></td></tr><tr><td style="font-weight:bold;vertical-align:top;">REQUEST_METHOD</td><td style="vertical-align:top;">:</td><td><div>GET</div></td></tr><tr><td style="font-weight:bold;vertical-align:top;">SCRIPT_NAME</td><td style="vertical-align:top;">:</td><td><div></div></td></tr><tr><td style="font-weight:bold;vertical-align:top;">SERVER_NAME</td><td style="vertical-align:top;">:</td><td><div>isis.biologie.hu-berlin.de</div></td></tr><tr><td style="font-weight:bold;vertical-align:top;">SERVER_PORT</td><td style="vertical-align:top;">:</td><td><div>8000</div></td></tr><tr><td style="font-weight:bold;vertical-align:top;">SERVER_PROTOCOL</td><td style="vertical-align:top;">:</td><td><div>HTTP/1.1</div></td></tr><tr><td style="font-weight:bold;vertical-align:top;">SERVER_SOFTWARE</td><td style="vertical-align:top;">:</td><td><div>Rocket 1.2.6</div></td></tr><tr><td style="font-weight:bold;vertical-align:top;">app_folders</td><td style="vertical-align:top;">:</td><td><div>set([&#x27;/home/tlubitz/web2py/applications/SBtab/&#x27;])</div></td></tr><tr><td style="font-weight:bold;vertical-align:top;">applications_parent</td><td style="vertical-align:top;">:</td><td><div>/home/tlubitz/web2py</div></td></tr><tr><td style="font-weight:bold;vertical-align:top;">cmd_args</td><td style="vertical-align:top;">:</td><td><div><table></table></div></td></tr><tr><td style="font-weight:bold;vertical-align:top;">cmd_options</td><td style="vertical-align:top;">:</td><td><div>&lt;Values at 0x7f5866e7e560: {&#x27;verbose&#x27;: False, &#x27;ip&#x27;: &#x27;127.0.0.1&#x27;, &#x27;debuglevel&#x27;: 30, &#x27;with_scheduler&#x27;: False, &#x27;ips&#x27;: [&#x27;141.20.63.185&#x27;], &#x27;shutdown_timeout&#x27;: 5, &#x27;taskbar&#x27;: False, &#x27;with_coverage&#x27;: False, &#x27;port&#x27;: 8000, &#x27;maxthreads&#x27;: None, &#x27;softcron&#x27;: False, &#x27;server_name&#x27;: &#x27;isis.biologie.hu-berlin.de&#x27;, &#x27;bpython&#x27;: False, &#x27;nogui&#x27;: False, &#x27;pid_filename&#x27;: &#x27;httpserver.pid&#x27;, &#x27;extcron&#x27;: False, &#x27;runcron&#x27;: False, &#x27;run_system_tests&#x27;: False, &#x27;test&#x27;: None, &#x27;folder&#x27;: &#x27;/home/tlubitz/web2py&#x27;, &#x27;config&#x27;: &#x27;&#x27;, &#x27;minthreads&#x27;: None, &#x27;shell&#x27;: None, &#x27;run&#x27;: &#x27;&#x27;, &#x27;log_filename&#x27;: &#x27;httpserver.log&#x27;, &#x27;profiler_dir&#x27;: None, &#x27;args&#x27;: [&#x27;&#x27;], &#x27;socket_timeout&#x27;: 5, &#x27;ssl_ca_certificate&#x27;: None, &#x27;scheduler&#x27;: None, &#x27;interfaces&#x27;: None, &#x27;ssl_private_key&#x27;: &#x27;&#x27;, &#x27;scheduler_groups&#x27;: None, &#x27;password&#x27;: &#x27;hund&#x27;, &#x27;request_queue_size&#x27;: 5, &#x27;ssl_certificate&#x27;: &#x27;&#x27;, &#x27;cronjob&#x27;: False, &#x27;numthreads&#x27;: None, &#x27;quiet&#x27;: False, &#x27;import_models&#x27;: False, &#x27;timeout&#x27;: 10, &#x27;plain&#x27;: False, &#x27;nobanner&#x27;: False}&gt;</div></td></tr><tr><td style="font-weight:bold;vertical-align:top;">db_sessions</td><td style="vertical-align:top;">:</td><td><div>set([])</div></td></tr><tr><td style="font-weight:bold;vertical-align:top;">debugging</td><td style="vertical-align:top;">:</td><td><div>False</div></td></tr><tr><td style="font-weight:bold;vertical-align:top;">gluon_parent</td><td style="vertical-align:top;">:</td><td><div>/home/tlubitz/web2py</div></td></tr><tr><td style="font-weight:bold;vertical-align:top;">http_accept</td><td style="vertical-align:top;">:</td><td><div>text/html,application/xhtml+xml,application/xml;q=0.9,image/webp,*/*;q=0.8</div></td></tr><tr><td style="font-weight:bold;vertical-align:top;">http_accept_encoding</td><td style="vertical-align:top;">:</td><td><div>gzip,deflate,sdch</div></td></tr><tr><td style="font-weight:bold;vertical-align:top;">http_accept_language</td><td style="vertical-align:top;">:</td><td><div>en-US,en;q=0.8,de;q=0.6</div></td></tr><tr><td style="font-weight:bold;vertical-align:top;">http_cache_control</td><td style="vertical-align:top;">:</td><td><div>max-age=0</div></td></tr><tr><td style="font-weight:bold;vertical-align:top;">http_connection</td><td style="vertical-align:top;">:</td><td><div>keep-alive</div></td></tr><tr><td style="font-weight:bold;vertical-align:top;">http_cookie</td><td style="vertical-align:top;">:</td><td><div>session_id_admin=127.0.0.1-ece6dc41-d206-482d-b5b1-e1e6e65863cb; session_id_sbtab=127.0.0.1-7f013fb8-d8ef-4bc2-8487-6dad284de278</div></td></tr><tr><td style="font-weight:bold;vertical-align:top;">http_host</td><td style="vertical-align:top;">:</td><td><div>127.0.0.1:8000</div></td></tr><tr><td style="font-weight:bold;vertical-align:top;">http_user_agent</td><td style="vertical-align:top;">:</td><td><div>Mozilla/5.0 (X11; Linux x86_64) AppleWebKit/537.36 (KHTML, like Gecko) Ubuntu Chromium/38.0.2125.111 Chrome/38.0.2125.111 Safari/537.36</div></td></tr><tr><td style="font-weight:bold;vertical-align:top;">is_jython</td><td style="vertical-align:top;">:</td><td><div>False</div></td></tr><tr><td style="font-weight:bold;vertical-align:top;">is_pypy</td><td style="vertical-align:top;">:</td><td><div>False</div></td></tr><tr><td style="font-weight:bold;vertical-align:top;">is_source</td><td style="vertical-align:top;">:</td><td><div>True</div></td></tr><tr><td style="font-weight:bold;vertical-align:top;">path_info</td><td style="vertical-align:top;">:</td><td><div>/converter</div></td></tr><tr><td style="font-weight:bold;vertical-align:top;">query_string</td><td style="vertical-align:top;">:</td><td><div></div></td></tr><tr><td style="font-weight:bold;vertical-align:top;">remote_addr</td><td style="vertical-align:top;">:</td><td><div>127.0.0.1</div></td></tr><tr><td style="font-weight:bold;vertical-align:top;">remote_port</td><td style="vertical-align:top;">:</td><td><div>56473</div></td></tr><tr><td style="font-weight:bold;vertical-align:top;">request_method</td><td style="vertical-align:top;">:</td><td><div>GET</div></td></tr><tr><td style="font-weight:bold;vertical-align:top;">request_uri</td><td style="vertical-align:top;">:</td><td><div>/SBtab/default/converter</div></td></tr><tr><td style="font-weight:bold;vertical-align:top;">script_name</td><td style="vertical-align:top;">:</td><td><div></div></td></tr><tr><td style="font-weight:bold;vertical-align:top;">server_name</td><td style="vertical-align:top;">:</td><td><div>isis.biologie.hu-berlin.de</div></td></tr><tr><td style="font-weight:bold;vertical-align:top;">server_port</td><td style="vertical-align:top;">:</td><td><div>8000</div></td></tr><tr><td style="font-weight:bold;vertical-align:top;">server_protocol</td><td style="vertical-align:top;">:</td><td><div>HTTP/1.1</div></td></tr><tr><td style="font-weight:bold;vertical-align:top;">server_software</td><td style="vertical-align:top;">:</td><td><div>Rocket 1.2.6</div></td></tr><tr><td style="font-weight:bold;vertical-align:top;">web2py_original_uri</td><td style="vertical-align:top;">:</td><td><div>/converter</div></td></tr><tr><td style="font-weight:bold;vertical-align:top;">web2py_path</td><td style="vertical-align:top;">:</td><td><div>/home/tlubitz/web2py</div></td></tr><tr><td style="font-weight:bold;vertical-align:top;">web2py_version</td><td style="vertical-align:top;">:</td><td><div>2.8.2-stable+timestamp.2013.11.28.13.54.07</div></td></tr><tr><td style="font-weight:bold;vertical-align:top;">wsgi.errors</td><td style="vertical-align:top;">:</td><td><div>&lt;open file &#x27;&lt;stderr&gt;&#x27;, mode &#x27;w&#x27; at 0x7f586f0811e0&gt;</div></td></tr><tr><td style="font-weight:bold;vertical-align:top;">wsgi.file_wrapper</td><td style="vertical-align:top;">:</td><td><div>&lt;class wsgiref.util.FileWrapper at 0x7f5866f14738&gt;</div></td></tr><tr><td style="font-weight:bold;vertical-align:top;">wsgi.input</td><td style="vertical-align:top;">:</td><td><div>&lt;socket._fileobject object at 0x7f5869b9a3d0&gt;</div></td></tr><tr><td style="font-weight:bold;vertical-align:top;">wsgi.multiprocess</td><td style="vertical-align:top;">:</td><td><div>False</div></td></tr><tr><td style="font-weight:bold;vertical-align:top;">wsgi.multithread</td><td style="vertical-align:top;">:</td><td><div>True</div></td></tr><tr><td style="font-weight:bold;vertical-align:top;">wsgi.run_once</td><td style="vertical-align:top;">:</td><td><div>False</div></td></tr><tr><td style="font-weight:bold;vertical-align:top;">wsgi.url_scheme</td><td style="vertical-align:top;">:</td><td><div>http</div></td></tr><tr><td style="font-weight:bold;vertical-align:top;">wsgi.version</td><td style="vertical-align:top;">:</td><td><div><table><tr><td><div>1</div></td></tr><tr><td><div>0</div></td></tr></table></div></td></tr><tr><td style="font-weight:bold;vertical-align:top;">wsgi_errors</td><td style="vertical-align:top;">:</td><td><div>&lt;open file &#x27;&lt;stderr&gt;&#x27;, mode &#x27;w&#x27; at 0x7f586f0811e0&gt;</div></td></tr><tr><td style="font-weight:bold;vertical-align:top;">wsgi_file_wrapper</td><td style="vertical-align:top;">:</td><td><div>&lt;class wsgiref.util.FileWrapper at 0x7f5866f14738&gt;</div></td></tr><tr><td style="font-weight:bold;vertical-align:top;">wsgi_input</td><td style="vertical-align:top;">:</td><td><div>&lt;socket._fileobject object at 0x7f5869b9a3d0&gt;</div></td></tr><tr><td style="font-weight:bold;vertical-align:top;">wsgi_multiprocess</td><td style="vertical-align:top;">:</td><td><div>False</div></td></tr><tr><td style="font-weight:bold;vertical-align:top;">wsgi_multithread</td><td style="vertical-align:top;">:</td><td><div>True</div></td></tr><tr><td style="font-weight:bold;vertical-align:top;">wsgi_run_once</td><td style="vertical-align:top;">:</td><td><div>False</div></td></tr><tr><td style="font-weight:bold;vertical-align:top;">wsgi_url_scheme</td><td style="vertical-align:top;">:</td><td><div>http</div></td></tr><tr><td style="font-weight:bold;vertical-align:top;">wsgi_version</td><td style="vertical-align:top;">:</td><td><div><table><tr><td><div>1</div></td></tr><tr><td><div>0</div></td></tr></table></div></td></tr></table></div></td></tr><tr><td style="font-weight:bold;vertical-align:top;">extension</td><td style="vertical-align:top;">:</td><td><div>html</div></td></tr><tr><td style="font-weight:bold;vertical-align:top;">folder</td><td style="vertical-align:top;">:</td><td><div>/home/tlubitz/web2py/applications/SBtab/</div></td></tr><tr><td style="font-weight:bold;vertical-align:top;">function</td><td style="vertical-align:top;">:</td><td><div>converter</div></td></tr><tr><td style="font-weight:bold;vertical-align:top;">global_settings</td><td style="vertical-align:top;">:</td><td><div><table><tr><td style="font-weight:bold;vertical-align:top;">app_folders</td><td style="vertical-align:top;">:</td><td><div>set([&#x27;/home/tlubitz/web2py/applications/SBtab/&#x27;])</div></td></tr><tr><td style="font-weight:bold;vertical-align:top;">applications_parent</td><td style="vertical-align:top;">:</td><td><div>/home/tlubitz/web2py</div></td></tr><tr><td style="font-weight:bold;vertical-align:top;">cmd_args</td><td style="vertical-align:top;">:</td><td><div><table></table></div></td></tr><tr><td style="font-weight:bold;vertical-align:top;">cmd_options</td><td style="vertical-align:top;">:</td><td><div>&lt;Values at 0x7f5866e7e560: {&#x27;verbose&#x27;: False, &#x27;ip&#x27;: &#x27;127.0.0.1&#x27;, &#x27;debuglevel&#x27;: 30, &#x27;with_scheduler&#x27;: False, &#x27;ips&#x27;: [&#x27;141.20.63.185&#x27;], &#x27;shutdown_timeout&#x27;: 5, &#x27;taskbar&#x27;: False, &#x27;with_coverage&#x27;: False, &#x27;port&#x27;: 8000, &#x27;maxthreads&#x27;: None, &#x27;softcron&#x27;: False, &#x27;server_name&#x27;: &#x27;isis.biologie.hu-berlin.de&#x27;, &#x27;bpython&#x27;: False, &#x27;nogui&#x27;: False, &#x27;pid_filename&#x27;: &#x27;httpserver.pid&#x27;, &#x27;extcron&#x27;: False, &#x27;runcron&#x27;: False, &#x27;run_system_tests&#x27;: False, &#x27;test&#x27;: None, &#x27;folder&#x27;: &#x27;/home/tlubitz/web2py&#x27;, &#x27;config&#x27;: &#x27;&#x27;, &#x27;minthreads&#x27;: None, &#x27;shell&#x27;: None, &#x27;run&#x27;: &#x27;&#x27;, &#x27;log_filename&#x27;: &#x27;httpserver.log&#x27;, &#x27;profiler_dir&#x27;: None, &#x27;args&#x27;: [&#x27;&#x27;], &#x27;socket_timeout&#x27;: 5, &#x27;ssl_ca_certificate&#x27;: None, &#x27;scheduler&#x27;: None, &#x27;interfaces&#x27;: None, &#x27;ssl_private_key&#x27;: &#x27;&#x27;, &#x27;scheduler_groups&#x27;: None, &#x27;password&#x27;: &#x27;hund&#x27;, &#x27;request_queue_size&#x27;: 5, &#x27;ssl_certificate&#x27;: &#x27;&#x27;, &#x27;cronjob&#x27;: False, &#x27;numthreads&#x27;: None, &#x27;quiet&#x27;: False, &#x27;import_models&#x27;: False, &#x27;timeout&#x27;: 10, &#x27;plain&#x27;: False, &#x27;nobanner&#x27;: False}&gt;</div></td></tr><tr><td style="font-weight:bold;vertical-align:top;">db_sessions</td><td style="vertical-align:top;">:</td><td><div>set([])</div></td></tr><tr><td style="font-weight:bold;vertical-align:top;">debugging</td><td style="vertical-align:top;">:</td><td><div>False</div></td></tr><tr><td style="font-weight:bold;vertical-align:top;">gluon_parent</td><td style="vertical-align:top;">:</td><td><div>/home/tlubitz/web2py</div></td></tr><tr><td style="font-weight:bold;vertical-align:top;">is_jython</td><td style="vertical-align:top;">:</td><td><div>False</div></td></tr><tr><td style="font-weight:bold;vertical-align:top;">is_pypy</td><td style="vertical-align:top;">:</td><td><div>False</div></td></tr><tr><td style="font-weight:bold;vertical-align:top;">is_source</td><td style="vertical-align:top;">:</td><td><div>True</div></td></tr><tr><td style="font-weight:bold;vertical-align:top;">local_hosts</td><td style="vertical-align:top;">:</td><td><div><table><tr><td><div>::1</div></td></tr><tr><td><div>141.20.63.185</div></td></tr><tr><td><div>::ffff:127.0.0.1</div></td></tr><tr><td><div>127.0.0.1</div></td></tr><tr><td><div>isis.biologie.hu-berlin.de</div></td></tr></table></div></td></tr><tr><td style="font-weight:bold;vertical-align:top;">web2py_version</td><td style="vertical-align:top;">:</td><td><div>2.8.2-stable+timestamp.2013.11.28.13.54.07</div></td></tr></table></div></td></tr><tr><td style="font-weight:bold;vertical-align:top;">is_https</td><td style="vertical-align:top;">:</td><td><div>False</div></td></tr><tr><td style="font-weight:bold;vertical-align:top;">is_local</td><td style="vertical-align:top;">:</td><td><div>True</div></td></tr><tr><td style="font-weight:bold;vertical-align:top;">is_restful</td><td style="vertical-align:top;">:</td><td><div>False</div></td></tr><tr><td style="font-weight:bold;vertical-align:top;">now</td><td style="vertical-align:top;">:</td><td><div>datetime.datetime(2014, 11, 19, 10, 52, 59, 121331)</div></td></tr><tr><td style="font-weight:bold;vertical-align:top;">url</td><td style="vertical-align:top;">:</td><td><div>/converter</div></td></tr><tr><td style="font-weight:bold;vertical-align:top;">utcnow</td><td style="vertical-align:top;">:</td><td><div>datetime.datetime(2014, 11, 19, 9, 52, 59, 121365)</div></td></tr><tr><td style="font-weight:bold;vertical-align:top;">uuid</td><td style="vertical-align:top;">:</td><td><div>SBtab/127.0.0.1.2014-11-19.10-52-59.a6f4b27e-46ff-4890-a66e-4cf4ecd9c5d6</div></td></tr><tr><td style="font-weight:bold;vertical-align:top;">wsgi</td><td style="vertical-align:top;">:</td><td><div>&lt;gluon.main.LazyWSGI object at 0x7f5866ea43d0&gt;</div></td></tr></table></div>'
tRp70
sS'frames'
p71
(lp72
(dp73
S'file'
p74
S'/home/tlubitz/web2py/gluon/restricted.py'
p75
sS'dump'
p76
(dp77
S'environment'
p78
S"{'A': <class 'gluon.html.A'>, 'ANY_OF': <class 'gluon.validators.ANY_OF'>, 'Auth': <class 'gluon.tools.Auth'>, 'B': <class 'gluon.html.B'>, 'BEAUTIFY': <class 'gluon.html.BEAUTIFY'>, 'BODY': <class 'gluon.html.BODY'>, 'BR': <class 'gluon.html.BR'>, 'BUTTON': <class 'gluon.html.BUTTON'>, 'CAT': <class 'gluon.html.CAT'>, 'CENTER': <class 'gluon.html.CENTER'>, ...}"
p79
sS'ccode'
p80
S'<code object <module> at 0x7f58644ed130, file "/...lications/SBtab/controllers/default.py", line 11>'
p81
ssS'lnum'
p82
I217
sS'lines'
p83
(dp84
I212
S'    try:'
p85
sI213
S'        if isinstance(code, types.CodeType):'
p86
sI214
S'            ccode = code'
p87
sI215
S'        else:'
p88
sI216
S'            ccode = compile2(code, layer)'
p89
sI217
S'        exec ccode in environment'
p90
sI218
S'    except HTTP:'
p91
sI219
S'        raise'
p92
sI220
S'    except RestrictedError:'
p93
sI221
S'        # do not encapsulate (obfuscate) the original RestrictedError'
p94
ssS'call'
p95
S"(code='# -*- coding: utf-8 -*-\\n# this file is released ...d())\\n\\nresponse._vars=response._caller(converter)\\n', environment={'A': <class 'gluon.html.A'>, 'ANY_OF': <class 'gluon.validators.ANY_OF'>, 'Auth': <class 'gluon.tools.Auth'>, 'B': <class 'gluon.html.B'>, 'BEAUTIFY': <class 'gluon.html.BEAUTIFY'>, 'BODY': <class 'gluon.html.BODY'>, 'BR': <class 'gluon.html.BR'>, 'BUTTON': <class 'gluon.html.BUTTON'>, 'CAT': <class 'gluon.html.CAT'>, 'CENTER': <class 'gluon.html.CENTER'>, ...}, layer='/home/tlubitz/web2py/applications/SBtab/controllers/default.py')"
p96
sS'func'
p97
S'restricted'
p98
sa(dp99
g74
S'/home/tlubitz/web2py/applications/SBtab/controllers/default.py'
p100
sg76
(dp101
S'sbtab2sbml'
p102
S'undefined'
p103
ssg82
I15
sg83
(dp104
I10
S'#########################################################################'
p105
sI11
S'import tablib'
p106
sI12
S'import tablibIO'
p107
sI13
S'import validatorSBtab'
p108
sI14
S'import sbml2sbtab'
p109
sI15
S'import sbtab2sbml'
p110
sI16
S'import libsbml'
p111
sI17
S'import random'
p112
sI18
S'import splitTabs'
p113
sI19
S'import makehtml'
p114
ssg95
S'()'
p115
sg97
S'<module>'
p116
sa(dp117
g74
S'/home/tlubitz/web2py/gluon/custom_import.py'
p118
sg76
(dp119
S'e2'
p120
S"SyntaxError('invalid syntax', ('applications/SBt...50, 34, '        for row in xls_file.nrows):\\n'))"
p121
ssg82
I94
sg83
(dp122
I96
S'            if import_tb:'
p123
sI97
S'                import_tb = None'
p124
sI98
S''
sI89
S'            try:'
p125
sI90
S'                return NATIVE_IMPORTER(name, globals, locals, fromlist, level)'
p126
sI91
S'            except ImportError, e3:'
p127
sI92
S'                raise ImportError, e1, import_tb  # there an import error in the module'
p128
sI93
S'        except Exception, e2:'
p129
sI94
S'            raise e2  # there is an error in the module'
p130
sI95
S'        finally:'
p131
ssg95
S"(name='sbtab2sbml', globals={'A': <class 'gluon.html.A'>, 'ANY_OF': <class 'gluon.validators.ANY_OF'>, 'Auth': <class 'gluon.tools.Auth'>, 'B': <class 'gluon.html.B'>, 'BEAUTIFY': <class 'gluon.html.BEAUTIFY'>, 'BODY': <class 'gluon.html.BODY'>, 'BR': <class 'gluon.html.BR'>, 'BUTTON': <class 'gluon.html.BUTTON'>, 'CAT': <class 'gluon.html.CAT'>, 'CENTER': <class 'gluon.html.CENTER'>, ...}, locals={'A': <class 'gluon.html.A'>, 'ANY_OF': <class 'gluon.validators.ANY_OF'>, 'Auth': <class 'gluon.tools.Auth'>, 'B': <class 'gluon.html.B'>, 'BEAUTIFY': <class 'gluon.html.BEAUTIFY'>, 'BODY': <class 'gluon.html.BODY'>, 'BR': <class 'gluon.html.BR'>, 'BUTTON': <class 'gluon.html.BUTTON'>, 'CAT': <class 'gluon.html.CAT'>, 'CENTER': <class 'gluon.html.CENTER'>, ...}, fromlist=[], level=-1)"
p132
sg97
S'custom_importer'
p133
sasS'pyver'
p134
S'Python 2.7.6: /usr/bin/python (prefix: /usr)'
p135
sS'session'
p136
g69
(S'sa$\x00\x00<div><table><tr><td style="font-weight:bold;vertical-align:top;">definition_file</td><td style="vertical-align:top;">:</td><td><div><table></table></div></td></tr><tr><td style="font-weight:bold;vertical-align:top;">definition_file_name</td><td style="vertical-align:top;">:</td><td><div><table></table></div></td></tr><tr><td style="font-weight:bold;vertical-align:top;">ex_warning</td><td style="vertical-align:top;">:</td><td><div>The file that you uploaded is no SBtab file. Please only use .csv or .xls format. If it still does not work out, please consult the SBtab specification.</div></td></tr><tr><td style="font-weight:bold;vertical-align:top;">name2doc</td><td style="vertical-align:top;">:</td><td><div><table><tr><td style="font-weight:bold;vertical-align:top;">sbtab_reaction_single_Reaction</td><td style="vertical-align:top;">:</td><td><div>Test</div></td></tr></table></div></td></tr><tr><td style="font-weight:bold;vertical-align:top;">sbml_fileformat</td><td style="vertical-align:top;">:</td><td><div><table></table></div></td></tr><tr><td style="font-weight:bold;vertical-align:top;">sbml_filenames</td><td style="vertical-align:top;">:</td><td><div><table></table></div></td></tr><tr><td style="font-weight:bold;vertical-align:top;">sbmls</td><td style="vertical-align:top;">:</td><td><div><table></table></div></td></tr><tr><td style="font-weight:bold;vertical-align:top;">sbtab_docnames</td><td style="vertical-align:top;">:</td><td><div><table><tr><td><div>Test</div></td></tr></table></div></td></tr><tr><td style="font-weight:bold;vertical-align:top;">sbtab_fileformat</td><td style="vertical-align:top;">:</td><td><div><table><tr><td><div>.xls</div></td></tr></table></div></td></tr><tr><td style="font-weight:bold;vertical-align:top;">sbtab_filenames</td><td style="vertical-align:top;">:</td><td><div><table><tr><td><div>sbtab_reaction_single_Reaction</div></td></tr></table></div></td></tr><tr><td style="font-weight:bold;vertical-align:top;">sbtab_types</td><td style="vertical-align:top;">:</td><td><div><table><tr><td><div>Reaction</div></td></tr></table></div></td></tr><tr><td style="font-weight:bold;vertical-align:top;">sbtabs</td><td style="vertical-align:top;">:</td><td><div><table><tr><td><div>\xd0\xcf\x11\xe0\xa1\xb1\x1a\xe1\x00\x00\x00\x00\x00\x00\x00\x00\x00\x00\x00\x00\x00\x00\x00\x00;\x00\x03\x00\xfe\xff\t\x00\x06\x00\x00\x00\x00\x00\x00\x00\x00\x00\x00\x00\x01\x00\x00\x00\n\x00\x00\x00\x00\x00\x00\x00\x00\x10\x00\x00\x02\x00\x00\x00\x01\x00\x00\x00\xfe\xff\xff\xff\x00\x00\x00\x00\x00\x00\x00\x00\xff\xff\xff\xff\xff\xff\xff\xff\xff\xff\xff\xff\xff\xff\xff\xff\xff\xff\xff\xff\xff\xff\xff\xff\xff\xff\xff\xff\xff\xff\xff\xff\xff\xff\xff\xff\xff\xff\xff\xff\xff\xff\xff\xff\xff\xff\xff\xff\xff\xff\xff\xff\xff\xff\xff\xff\xff\xff\xff\xff\xff\xff\xff\xff\xff\xff\xff\xff\xff\xff\xff\xff\xff\xff\xff\xff\xff\xff\xff\xff\xff\xff\xff\xff\xff\xff\xff\xff\xff\xff\xff\xff\xff\xff\xff\xff\xff\xff\xff\xff\xff\xff\xff\xff\xff\xff\xff\xff\xff\xff\xff\xff\xff\xff\xff\xff\xff\xff\xff\xff\xff\xff\xff\xff\xff\xff\xff\xff\xff\xff\xff\xff\xff\xff\xff\xff\xff\xff\xff\xff\xff\xff\xff\xff\xff\xff\xff\xff\xff\xff\xff\xff\xff\xff\xff\xff\xff\xff\xff\xff\xff\xff\xff\xff\xff\xff\xff\xff\xff\xff\xff\xff\xff\xff\xff\xff\xff\xff\xff\xff\xff\xff\xff\xff\xff\xff\xff\xff\xff\xff\xff\xff\xff\xff\xff\xff\xff\xff\xff\xff\xff\xff\xff\xff\xff\xff\xff\xff\xff\xff\xff\xff\xff\xff\xff\xff\xff\xff\xff\xff\xff\xff\xff\xff\xff\xff\xff\xff\xff\xff\xff\xff\xff\xff\xff\xff\xff\xff\xff\xff\xff\xff\xff\xff\xff\xff\xff\xff\xff\xff\xff\xff\xff\xff\xff\xff\xff\xff\xff\xff\xff\xff\xff\xff\xff\xff\xff\xff\xff\xff\xff\xff\xff\xff\xff\xff\xff\xff\xff\xff\xff\xff\xff\xff\xff\xff\xff\xff\xff\xff\xff\xff\xff\xff\xff\xff\xff\xff\xff\xff\xff\xff\xff\xff\xff\xff\xff\xff\xff\xff\xff\xff\xff\xff\xff\xff\xff\xff\xff\xff\xff\xff\xff\xff\xff\xff\xff\xff\xff\xff\xff\xff\xff\xff\xff\xff\xff\xff\xff\xff\xff\xff\xff\xff\xff\xff\xff\xff\xff\xff\xff\xff\xff\xff\xff\xff\xff\xff\xff\xff\xff\xff\xff\xff\xff\xff\xff\xff\xff\xff\xff\xff\xff\xff\xff\xff\xff\xff\xff\xff\xff\xff\xff\xff\xff\xff\xff\xff\xff\xff\xff\xff\xff\xff\xff\xff\xff\xff\xff\xff\xff\xff\xff\xff\xff\xff\xff\xff\xff\xff\xff\xff\xff\xff\xff\xff\xff\xff\xff\xff\xff\xff\xff\xff\xff\xff\xff\xff\xff\xff\xff\xff\xfd\xff\xff\xff\xff\xff\xff\xff\xfe\xff\xff\xff\x04\x00\x00\x00\x05\x00\x00\x00\x06\x00\x00\x00\x07\x00\x00\x00\x08\x00\x00\x00\t\x00\x00\x00\xfe\xff\xff\xff\x0b\x00\x00\x00\xfe\xff\xff\xff\xff\xff\xff\xff\xff\xff\xff\xff\xff\xff\xff\xff\xff\xff\xff\xff\xff\xff\xff\xff\xff\xff\xff\xff\xff\xff\xff\xff\xff\xff\xff\xff\xff\xff\xff\xff\xff\xff\xff\xff\xff\xff\xff\xff\xff\xff\xff\xff\xff\xff\xff\xff\xff\xff\xff\xff\xff\xff\xff\xff\xff\xff\xff\xff\xff\xff\xff\xff\xff\xff\xff\xff\xff\xff\xff\xff\xff\xff\xff\xff\xff\xff\xff\xff\xff\xff\xff\xff\xff\xff\xff\xff\xff\xff\xff\xff\xff\xff\xff\xff\xff\xff\xff\xff\xff\xff\xff\xff\xff\xff\xff\xff\xff\xff\xff\xff\xff\xff\xff\xff\xff\xff\xff\xff\xff\xff\xff\xff\xff\xff\xff\xff\xff\xff\xff\xff\xff\xff\xff\xff\xff\xff\xff\xff\xff\xff\xff\xff\xff\xff\xff\xff\xff\xff\xff\xff\xff\xff\xff\xff\xff\xff\xff\xff\xff\xff\xff\xff\xff\xff\xff\xff\xff\xff\xff\xff\xff\xff\xff\xff\xff\xff\xff\xff\xff\xff\xff\xff\xff\xff\xff\xff\xff\xff\xff\xff\xff\xff\xff\xff\xff\xff\xff\xff\xff\xff\xff\xff\xff\xff\xff\xff\xff\xff\xff\xff\xff\xff\xff\xff\xff\xff\xff\xff\xff\xff\xff\xff\xff\xff\xff\xff\xff\xff\xff\xff\xff\xff\xff\xff\xff\xff\xff\xff\xff\xff\xff\xff\xff\xff\xff\xff\xff\xff\xff\xff\xff\xff\xff\xff\xff\xff\xff\xff\xff\xff\xff\xff\xff\xff\xff\xff\xff\xff\xff\xff\xff\xff\xff\xff\xff\xff\xff\xff\xff\xff\xff\xff\xff\xff\xff\xff\xff\xff\xff\xff\xff\xff\xff\xff\xff\xff\xff\xff\xff\xff\xff\xff\xff\xff\xff\xff\xff\xff\xff\xff\xff\xff\xff\xff\xff\xff\xff\xff\xff\xff\xff\xff\xff\xff\xff\xff\xff\xff\xff\xff\xff\xff\xff\xff\xff\xff\xff\xff\xff\xff\xff\xff\xff\xff\xff\xff\xff\xff\xff\xff\xff\xff\xff\xff\xff\xff\xff\xff\xff\xff\xff\xff\xff\xff\xff\xff\xff\xff\xff\xff\xff\xff\xff\xff\xff\xff\xff\xff\xff\xff\xff\xff\xff\xff\xff\xff\xff\xff\xff\xff\xff\xff\xff\xff\xff\xff\xff\xff\xff\xff\xff\xff\xff\xff\xff\xff\xff\xff\xff\xff\xff\xff\xff\xff\xff\xff\xff\xff\xff\xff\xff\xff\xff\xff\xff\xff\xff\xff\xff\xff\xff\xff\xff\xff\xff\xff\xff\xff\xff\xff\xff\xff\xff\xff\xff\xff\xff\xff\xff\xff\xff\xff\xff\xff\xff\xff\xff\xffR\x00o\x00o\x00t\x00 \x00E\x00n\x00t\x00r\x00y\x00\x00\x00\x00\x00\x00\x00\x00\x00\x00\x00\x00\x00\x00\x00\x00\x00\x00\x00\x00\x00\x00\x00\x00\x00\x00\x00\x00\x00\x00\x00\x00\x00\x00\x00\x00\x00\x00\x00\x00\x00\x00\x00\x00\x00\x16\x00\x05\x00\xff\xff\xff\xff\xff\xff\xff\xff\xff\xff\xff\xff\x00\x00\x00\x00\x00\x00\x00\x00\x00\x00\x00\x00\x00\x00\x00\x00\x00\x00\x00\x00\x00\x00\x00\x00\x00\x00\x00\x00\x00\x00\x00\x00\x00\x00\x00\x00\xfe\xff\xff\xff\x00\x00\x00\x00\x00\x00\x00\x00\x00\x00\x00\x00\x00\x00\x00\x00\x00\x00\x00\x00\x00\x00\x00\x00\x00\x00\x00\x00\x00\x00\x00\x00\x00\x00\x00\x00\x00\x00\x00\x00\x00\x00\x00\x00\x00\x00\x00\x00\x00\x00\x00\x00\x00\x00\x00\x00\x00\x00\x00\x00\x00\x00\x00\x00\x00\x00\x00\x00\x00\x00\x00\x00\x00\x00\x00\x00\xff\xff\xff\xff\xff\xff\xff\xff\xff\xff\xff\xff\x00\x00\x00\x00\x00\x00\x00\x00\x00\x00\x00\x00\x00\x00\x00\x00\x00\x00\x00\x00\x00\x00\x00\x00\x00\x00\x00\x00\x00\x00\x00\x00\x00\x00\x00\x00\xfe\xff\xff\xff\x00\x00\x00\x00\x00\x00\x00\x00\x00\x00\x00\x00\x00\x00\x00\x00\x00\x00\x00\x00\x00\x00\x00\x00\x00\x00\x00\x00\x00\x00\x00\x00\x00\x00\x00\x00\x00\x00\x00\x00\x00\x00\x00\x00\x00\x00\x00\x00\x00\x00\x00\x00\x00\x00\x00\x00\x00\x00\x00\x00\x00\x00\x00\x00\x00\x00\x00\x00\x00\x00\x00\x00\x00\x00\x00\x00\xff\xff\xff\xff\xff\xff\xff\xff\xff\xff\xff\xff\x00\x00\x00\x00\x00\x00\x00\x00\x00\x00\x00\x00\x00\x00\x00\x00\x00\x00\x00\x00\x00\x00\x00\x00\x00\x00\x00\x00\x00\x00\x00\x00\x00\x00\x00\x00\xfe\xff\xff\xff\x00\x00\x00\x00\x00\x00\x00\x00\x00\x00\x00\x00\x00\x00\x00\x00\x00\x00\x00\x00\x00\x00\x00\x00\x00\x00\x00\x00\x00\x00\x00\x00\x00\x00\x00\x00\x00\x00\x00\x00\x00\x00\x00\x00\x00\x00\x00\x00\x00\x00\x00\x00\x00\x00\x00\x00\x00\x00\x00\x00\x00\x00\x00\x00\x00\x00\x00\x00\x00\x00\x00\x00\x00\x00\x00\x00\xff\xff\xff\xff\xff\xff\xff\xff\xff\xff\xff\xff\x00\x00\x00\x00\x00\x00\x00\x00\x00\x00\x00\x00\x00\x00\x00\x00\x00\x00\x00\x00\x00\x00\x00\x00\x00\x00\x00\x00\x00\x00\x00\x00\x00\x00\x00\x00\xfe\xff\xff\xff\x00\x00\x00\x00\x00\x00\x00\x00\x01\x00\x00\x00\x02\x00\x00\x00\x03\x00\x00\x00\x04\x00\x00\x00\x05\x00\x00\x00\x06\x00\x00\x00\x07\x00\x00\x00\x08\x00\x00\x00\t\x00\x00\x00\n\x00\x00\x00\x0b\x00\x00\x00\x0c\x00\x00\x00\r\x00\x00\x00\x0e\x00\x00\x00\x0f\x00\x00\x00\x10\x00\x00\x00\x11\x00\x00\x00\x12\x00\x00\x00\x13\x00\x00\x00\x14\x00\x00\x00\x15\x00\x00\x00\x16\x00\x00\x00\x17\x00\x00\x00\x18\x00\x00\x00\x19\x00\x00\x00\x1a\x00\x00\x00\x1b\x00\x00\x00\x1c\x00\x00\x00\x1d\x00\x00\x00\x1e\x00\x00\x00\x1f\x00\x00\x00 \x00\x00\x00!\x00\x00\x00&quot;\x00\x00\x00#\x00\x00\x00$\x00\x00\x00%\x00\x00\x00&amp;\x00\x00\x00&#x27;\x00\x00\x00(\x00\x00\x00)\x00\x00\x00*\x00\x00\x00\xfe\xff\xff\xff,\x00\x00\x00\xfe\xff\xff\xff\xfe\xff\xff\xff/\x00\x00\x000\x00\x00\x001\x00\x00\x002\x00\x00\x00\xfe\xff\xff\xff4\x00\x00\x00\xfe\xff\xff\xff\xff\xff\xff\xff\xff\xff\xff\xff\xff\xff\xff\xff\xff\xff\xff\xff\xff\xff\xff\xff\xff\xff\xff\xff\xff\xff\xff\xff\xff\xff\xff\xff\xff\xff\xff\xff\xff\xff\xff\xff\xff\xff\xff\xff\xff\xff\xff\xff\xff\xff\xff\xff\xff\xff\xff\xff\xff\xff\xff\xff\xff\xff\xff\xff\xff\xff\xff\xff\xff\xff\xff\xff\xff\xff\xff\xff\xff\xff\xff\xff\xff\xff\xff\xff\xff\xff\xff\xff\xff\xff\xff\xff\xff\xff\xff\xff\xff\xff\xff\xff\xff\xff\xff\xff\xff\xff\xff\xff\xff\xff\xff\xff\xff\xff\xff\xff\xff\xff\xff\xff\xff\xff\xff\xff\xff\xff\xff\xff\xff\xff\xff\xff\xff\xff\xff\xff\xff\xff\xff\xff\xff\xff\xff\xff\xff\xff\xff\xff\xff\xff\xff\xff\xff\xff\xff\xff\xff\xff\xff\xff\xff\xff\xff\xff\xff\xff\xff\xff\xff\xff\xff\xff\xff\xff\xff\xff\xff\xff\xff\xff\xff\xff\xff\xff\xff\xff\xff\xff\xff\xff\xff\xff\xff\xff\xff\xff\xff\xff\xff\xff\xff\xff\xff\xff\xff\xff\xff\xff\xff\xff\xff\xff\xff\xff\xff\xff\xff\xff\xff\xff\xff\xff\xff\xff\xff\xff\xff\xff\xff\xff\xff\xff\xff\xff\xff\xff\xff\xff\xff\xff\xff\xff\xff\xff\xff\xff\xff\xff\xff\xff\xff\xff\xff\xff\xff\xff\xff\xff\xff\xff\xff\xff\xff\xff\xff\xff\xff\xff\xff\xff\xff\xff\xff\xff\xff\xff\xff\xff\xff\xff\xff\xff\xff\xff\xff\xff\xff\xff\xff\xff\xff\xff\xff\xff\xff\xff\xff\xff\xff\xff\t\x08\x10\x00\x00\x06\x05\x00\xbb\r\xcc\x07\x00\x00\x00\x00\x06\x00\x00\x00\xe1\x00\x02\x00\xb0\x04\xc1\x00\x02\x00\x00\x00\xe2\x00\x00\x00\\\x00p\x00\x04\x00\x00Calc                                                                                                         B\x00\x02\x00\xb0\x04a\x01\x02\x00\x00\x00\xc0\x01\x00\x00=\x01\x02\x00\x01\x00\x9c\x00\x02\x00\x0e\x00\xaf\x01\x02\x00\x00\x00\xbc\x01\x02\x00\x00\x00=\x00\x12\x00\x00\x00\x00\x00\x00@\x00 8\x00\x00\x00\x00\x00\x01\x00\x92\x00@\x00\x02\x00\x00\x00\x8d\x00\x02\x00\x00\x00&quot;\x00\x02\x00\x00\x00\x0e\x00\x02\x00\x01\x00\xb7\x01\x02\x00\x00\x00\xda\x00\x02\x00\x00\x001\x00\x1a\x00\xc8\x00\x00\x00\xff\x7f\x90\x01\x00\x00\x00\x02\x01\x00\x05\x01A\x00r\x00i\x00a\x00l\x001\x00\x1a\x00\xc8\x00\x00\x00\xff\x7f\x90\x01\x00\x00\x00\x00\x00\x00\x05\x01A\x00r\x00i\x00a\x00l\x001\x00\x1a\x00\xc8\x00\x00\x00\xff\x7f\x90\x01\x00\x00\x00\x00\x00\x00\x05\x01A\x00r\x00i\x00a\x00l\x001\x00\x1a\x00\xc8\x00\x00\x00\xff\x7f\x90\x01\x00\x00\x00\x00\x00\x00\x05\x01A\x00r\x00i\x00a\x00l\x00\x1e\x04\x0c\x00\xa4\x00\x07\x00\x00GENERAL\x1e\x04\x06\x00\xa5\x00\x01\x00\x00@\xe0\x00\x14\x00\x00\x00\xa4\x00\xf5\xff \x00\x00\x00\x00\x00\x00\x00\x00\x00\x00\x00\xc0 \xe0\x00\x14\x00\x01\x00\x00\x00\xf5\xff \x00\x00\xf4\x00\x00\x00\x00\x00\x00\x00\x00\xc0 \xe0\x00\x14\x00\x01\x00\x00\x00\xf5\xff \x00\x00\xf4\x00\x00\x00\x00\x00\x00\x00\x00\xc0 \xe0\x00\x14\x00\x02\x00\x00\x00\xf5\xff \x00\x00\xf4\x00\x00\x00\x00\x00\x00\x00\x00\xc0 \xe0\x00\x14\x00\x02\x00\x00\x00\xf5\xff \x00\x00\xf4\x00\x00\x00\x00\x00\x00\x00\x00\xc0 \xe0\x00\x14\x00\x00\x00\x00\x00\xf5\xff \x00\x00\xf4\x00\x00\x00\x00\x00\x00\x00\x00\xc0 \xe0\x00\x14\x00\x00\x00\x00\x00\xf5\xff \x00\x00\xf4\x00\x00\x00\x00\x00\x00\x00\x00\xc0 \xe0\x00\x14\x00\x00\x00\x00\x00\xf5\xff \x00\x00\xf4\x00\x00\x00\x00\x00\x00\x00\x00\xc0 \xe0\x00\x14\x00\x00\x00\x00\x00\xf5\xff \x00\x00\xf4\x00\x00\x00\x00\x00\x00\x00\x00\xc0 \xe0\x00\x14\x00\x00\x00\x00\x00\xf5\xff \x00\x00\xf4\x00\x00\x00\x00\x00\x00\x00\x00\xc0 \xe0\x00\x14\x00\x00\x00\x00\x00\xf5\xff \x00\x00\xf4\x00\x00\x00\x00\x00\x00\x00\x00\xc0 \xe0\x00\x14\x00\x00\x00\x00\x00\xf5\xff \x00\x00\xf4\x00\x00\x00\x00\x00\x00\x00\x00\xc0 \xe0\x00\x14\x00\x00\x00\x00\x00\xf5\xff \x00\x00\xf4\x00\x00\x00\x00\x00\x00\x00\x00\xc0 \xe0\x00\x14\x00\x00\x00\x00\x00\xf5\xff \x00\x00\xf4\x00\x00\x00\x00\x00\x00\x00\x00\xc0 \xe0\x00\x14\x00\x00\x00\x00\x00\xf5\xff \x00\x00\xf4\x00\x00\x00\x00\x00\x00\x00\x00\xc0 \xe0\x00\x14\x00\x00\x00\xa4\x00\x01\x00 \x00\x00\x00\x00\x00\x00\x00\x00\x00\x00\x00\xc0 \xe0\x00\x14\x00\x01\x00+\x00\xf5\xff \x00\x00\xf0\x00\x00\x00\x00\x00\x00\x00\x00\xc0 \xe0\x00\x14\x00\x01\x00)\x00\xf5\xff \x00\x00\xf0\x00\x00\x00\x00\x00\x00\x00\x00\xc0 \xe0\x00\x14\x00\x01\x00,\x00\xf5\xff \x00\x00\xf0\x00\x00\x00\x00\x00\x00\x00\x00\xc0 \xe0\x00\x14\x00\x01\x00*\x00\xf5\xff \x00\x00\xf0\x00\x00\x00\x00\x00\x00\x00\x00\xc0 \xe0\x00\x14\x00\x01\x00\t\x00\xf5\xff \x00\x00\xf0\x00\x00\x00\x00\x00\x00\x00\x00\xc0 \xe0\x00\x14\x00\x00\x00\xa5\x00\x01\x00 \x00\x00\x0c\x00\x00\x00\x00\x00\x00\x00\x00\xc0 \x93\x02\x04\x00\x00\x80\x00\xff\x93\x02\x04\x00\x10\x80\x03\xff\x93\x02\x04\x00\x11\x80\x06\xff\x93\x02\x04\x00\x12\x80\x04\xff\x93\x02\x04\x00\x13\x80\x07\xff\x93\x02\x04\x00\x14\x80\x05\xff`\x01\x02\x00\x00\x00\x85\x00\x0e\x00*\x06\x00\x00\x00\x00\x06\x00Sheet1\x8c\x00\x04\x001\x001\x00\xc1\x01\x08\x00\xc1\x01\x00\x00T\x8d\x01\x00\xeb\x00Z\x00\x0f\x00\x00\xf0R\x00\x00\x00\x00\x00\x06\xf0\x18\x00\x00\x00\x00\x04\x00\x00\x02\x00\x00\x00\x01\x00\x00\x00\x01\x00\x00\x00\x01\x00\x00\x00\x01\x00\x00\x003\x00\x0b\xf0\x12\x00\x00\x00\xbf\x00\x08\x00\x08\x00\x81\x01\t\x00\x00\x08\xc0\x01@\x00\x00\x08@\x00\x1e\xf1\x10\x00\x00\x00\r\x00\x00\x08\x0c\x00\x00\x08\x17\x00\x00\x08\xf7\x00\x00\x10\xfc\x00\xa5\x01\x1d\x00\x00\x00\x1b\x00\x00\x00D\x00\x00!!SBtab Level=&quot;1&quot; Version=&quot;0.1&quot; Document=&quot;Test&quot; TableType=&quot;Reaction&quot;\t\x00\x00!Reaction\x0b\x00\x00!SumFormula\x1a\x00\x00!Identifiers:kegg.reaction\t\x00\x00!GeneName\x14\x00\x00!MetabolicRegulators\t\x00\x00!Location\x07\x00\x00!Enzyme\x0b\x00\x00!KineticLaw\x0e\x00\x00!BuildReaction\x0c\x00\x00!BuildEnzyme\x02\x00\x00R1\x18\x00\x00ATP + F6P &lt;=&gt; ADP + F16P\x06\x00\x00R00658\x02\x00\x00na\x07\x00\x00cytosol\x03\x00\x00ATP\x13\x00\x00Mass action kinetic\x04\x00\x00True\x03\x00\x00NaN\x02\x00\x00R2\x19\x00\x00F16P + 2 H2O &lt;=&gt; F6P + Pi\x06\x00\x00R01015\x03\x00\x00fbp\x05\x00\x00+ ATP\r\x00\x00extracellular\x0c\x00\x00Hill kinetic\xff\x00\n\x00\x1b\x00b\x04\x00\x00\x0c\x00\x00\x00c\x08\x15\x00c\x08\x00\x00\x00\x00\x00\x00\x00\x00\x00\x00\x15\x00\x00\x00\x00\x00\x00\x00\x02\n\x00\x00\x00\t\x08\x10\x00\x00\x06\x10\x00\xbb\r\xcc\x07\x00\x00\x00\x00\x06\x00\x00\x00\x0c\x00\x02\x00d\x00\x0f\x00\x02\x00\x01\x00\x11\x00\x02\x00\x00\x00\x10\x00\x08\x00\xfc\xa9\xf1\xd2MbP?_\x00\x02\x00\x01\x00\x80\x00\x08\x00\x00\x00\x00\x00\x00\x00\x00\x00%\x02\x04\x00\x00\x00\x00\x01\x81\x00\x02\x00\xc1\x04*\x00\x02\x00\x00\x00+\x00\x02\x00\x00\x00\x82\x00\x02\x00\x01\x00\x14\x00%\x00&quot;\x00\x00&amp;C&amp;&quot;Times New Roman,Standard&quot;&amp;12&amp;A\x15\x00*\x00&#x27;\x00\x00&amp;C&amp;&quot;Times New Roman,Standard&quot;&amp;12Page &amp;P\x83\x00\x02\x00\x00\x00\x84\x00\x02\x00\x00\x00&amp;\x00\x08\x00333333\xe9?&#x27;\x00\x08\x00333333\xe9?(\x00\x08\x00\x83-\xd8\x82-\xd8\xf0?)\x00\x08\x00\x83-\xd8\x82-\xd8\xf0?\xa1\x00&quot;\x00\t\x00d\x00\x01\x00\x01\x00\x01\x00\x82\x00,\x01,\x01333333\xe9?333333\xe9?\x01\x00U\x00\x02\x00\x0b\x00}\x00\x0c\x00\x00\x00\x00\x00\x8d=\x0f\x00\x00\x00\x00\x00}\x00\x0c\x00\x01\x00\x01\x00\x10\x19\x0f\x00\x00\x00\x00\x00}\x00\x0c\x00\x02\x00\x02\x00\x83\x1e\x0f\x00\x00\x00\x00\x00}\x00\x0c\x00\x03\x00\x03\x00:\x0b\x0f\x00\x00\x00\x00\x00}\x00\x0c\x00\x04\x00\x04\x00\xa1\x12\x0f\x00\x00\x00\x00\x00}\x00\x0c\x00\x05\x00\x05\x00\\\x0b\x0f\x00\x00\x00\x00\x00}\x00\x0c\x00\x06\x00\x06\x00\xd9\x08\x0f\x00\x00\x00\x00\x00}\x00\x0c\x00\x07\x00\x07\x00a\x11\x0f\x00\x00\x00\x00\x00}\x00\x0c\x00\x08\x00\x08\x00S\r\x0f\x00\x00\x00\x00\x00}\x00\x0c\x00\t\x00\t\x00\xe7\x0c\x0f\x00\x00\x00\x00\x00}\x00\x0c\x00\n\x00\x00\x01\x96\x0b\x0f\x00\x00\x00\x00\x00\x00\x02\x0e\x00\x00\x00\x00\x00\x04\x00\x00\x00\x00\x00\n\x00\x00\x00\x08\x02\x10\x00\x00\x00\x00\x00\x01\x00\xf2\x00\x00\x00\x00\x00\x00\x01\x0f\x00\x08\x02\x10\x00\x01\x00\x00\x00\n\x00\xf2\x00\x00\x00\x00\x00\x00\x01\x0f\x00\x08\x02\x10\x00\x02\x00\x00\x00\n\x00\xf2\x00\x00\x00\x00\x00\x00\x01\x0f\x00\x08\x02\x10\x00\x03\x00\x00\x00\n\x00\xf2\x00\x00\x00\x00\x00\x00\x01\x0f\x00\xfd\x00\n\x00\x00\x00\x00\x00\x0f\x00\x00\x00\x00\x00\xfd\x00\n\x00\x01\x00\x00\x00\x0f\x00\x01\x00\x00\x00\xfd\x00\n\x00\x01\x00\x01\x00\x0f\x00\x02\x00\x00\x00\xfd\x00\n\x00\x01\x00\x02\x00\x0f\x00\x03\x00\x00\x00\xfd\x00\n\x00\x01\x00\x03\x00\x0f\x00\x04\x00\x00\x00\xfd\x00\n\x00\x01\x00\x04\x00\x0f\x00\x05\x00\x00\x00\xfd\x00\n\x00\x01\x00\x05\x00\x0f\x00\x06\x00\x00\x00\xfd\x00\n\x00\x01\x00\x06\x00\x0f\x00\x07\x00\x00\x00\xfd\x00\n\x00\x01\x00\x07\x00\x0f\x00\x08\x00\x00\x00\xfd\x00\n\x00\x01\x00\x08\x00\x0f\x00\t\x00\x00\x00\xfd\x00\n\x00\x01\x00\t\x00\x0f\x00\n\x00\x00\x00\xfd\x00\n\x00\x02\x00\x00\x00\x0f\x00\x0b\x00\x00\x00\xfd\x00\n\x00\x02\x00\x01\x00\x0f\x00\x0c\x00\x00\x00\xfd\x00\n\x00\x02\x00\x02\x00\x0f\x00\r\x00\x00\x00\xfd\x00\n\x00\x02\x00\x03\x00\x0f\x00\x0e\x00\x00\x00\xfd\x00\n\x00\x02\x00\x05\x00\x0f\x00\x0f\x00\x00\x00\xfd\x00\n\x00\x02\x00\x06\x00\x0f\x00\x10\x00\x00\x00\xfd\x00\n\x00\x02\x00\x07\x00\x0f\x00\x11\x00\x00\x00\xfd\x00\n\x00\x02\x00\x08\x00\x15\x00\x12\x00\x00\x00\xfd\x00\n\x00\x02\x00\t\x00\x0f\x00\x13\x00\x00\x00\xfd\x00\n\x00\x03\x00\x00\x00\x0f\x00\x14\x00\x00\x00\xfd\x00\n\x00\x03\x00\x01\x00\x0f\x00\x15\x00\x00\x00\xfd\x00\n\x00\x03\x00\x02\x00\x0f\x00\x16\x00\x00\x00\xfd\x00\n\x00\x03\x00\x03\x00\x0f\x00\x17\x00\x00\x00\xfd\x00\n\x00\x03\x00\x04\x00\x0f\x00\x18\x00\x00\x00\xfd\x00\n\x00\x03\x00\x05\x00\x0f\x00\x19\x00\x00\x00\xfd\x00\n\x00\x03\x00\x07\x00\x0f\x00\x1a\x00\x00\x00\xfd\x00\n\x00\x03\x00\x08\x00\x15\x00\x12\x00\x00\x00\xfd\x00\n\x00\x03\x00\t\x00\x15\x00\x12\x00\x00\x00\xec\x00P\x00\x0f\x00\x02\xf0H\x00\x00\x00\x10\x00\x08\xf0\x08\x00\x00\x00\x01\x00\x00\x00\x00\x04\x00\x00\x0f\x00\x03\xf00\x00\x00\x00\x0f\x00\x04\xf0(\x00\x00\x00\x01\x00\t\xf0\x10\x00\x00\x00\x00\x00\x00\x00\x00\x00\x00\x00\x00\x00\x00\x00\x00\x00\x00\x00\x02\x00\n\xf0\x08\x00\x00\x00\x00\x04\x00\x00\x05\x00\x00\x00&gt;\x02\x12\x00\xb6\x06\x00\x00\x00\x00@\x00\x00\x00\x00\x00\xbe\x00\x00\x00\x00\x00\xa0\x00\x04\x00\x13\x00\n\x00\x1d\x00\x0f\x00\x03\x02\x00\x02\x00\x00\x00\x01\x00\x02\x00\x02\x00\x02\x02g\x08\x17\x00g\x08\x00\x00\x00\x00\x00\x00\x00\x00\x00\x00\x02\x00\x01\xff\xff\xff\xff\x00\x00\x00\x00\n\x00\x00\x00\x00\x00\x00\x00\x00\x00\x00\x00\x00\x00\x00\x00\x00\x00\x00\x00\x00\x00\x00\x00\x00\x00\x00\x00\x00\x00\x00\x00\x00\x00\x00\x00\x00\x00\x00\x00\x00\x00\x00\x01\x00\xfe\xff\x03\n\x00\x00\xff\xff\xff\xff\x10\x08\x02\x00\x00\x00\x00\x00\xc0\x00\x00\x00\x00\x00\x00F\x1b\x00\x00\x00Microsoft Excel 97-Tabelle\x00\x06\x00\x00\x00Biff8\x00\x00\x00\x00\x00\x00\x00\x00\x00\x00\x00\x00\x00\x00\x00\x00\x00\x00\x00\x00\x00\x00\x00\x00\x00\x00\x00\x00\x00\x00\x00\x00\x00\x00\x00\x00\x00\x00\x00\x00\x00\x00\x00\x00\x00\x00\x00\x00\x00\x00\x00\x00\x00\x00\x00\x00\x00\x00\x00\x00\x01\x00\x00\x02\x00\x00\x00\x00\x00\x00\x00\x00\x00\x00\x00\x00\x00\x00\x00\x00\x00\x00\x00\x00\x00\x00\x00\x00\x00\x00\x00\x00\x00\x00\x00\x00\x00\x00\x00\x00\x00\x00\x00\x00\x00\x00\x00\x00\x00\x00\x00\x00\x00\x00\x00\x00\x00\x00\x00\x00\x00\x00\x00\x00\xfe\xff\x00\x00\x01\x00\x02\x00\x00\x00\x00\x00\x00\x00\x00\x00\x00\x00\x00\x00\x00\x00\x00\x00\x01\x00\x00\x00\xe0\x85\x9f\xf2\xf9Oh\x10\xab\x91\x08\x00+&#x27;\xb3\xd90\x00\x00\x00\x10\x01\x00\x00\r\x00\x00\x00\x01\x00\x00\x00p\x00\x00\x00\x02\x00\x00\x00x\x00\x00\x00\x03\x00\x00\x00\x84\x00\x00\x00\x04\x00\x00\x00\x90\x00\x00\x00\x05\x00\x00\x00\x9c\x00\x00\x00\x06\x00\x00\x00\xa8\x00\x00\x00\x07\x00\x00\x00\xb4\x00\x00\x00\x08\x00\x00\x00\xc0\x00\x00\x00\t\x00\x00\x00\xd4\x00\x00\x00\n\x00\x00\x00\xe0\x00\x00\x00\x0b\x00\x00\x00\xec\x00\x00\x00\x0c\x00\x00\x00\xf8\x00\x00\x00\r\x00\x00\x00\x04\x01\x00\x00\x02\x00\x00\x00\xe9\xfd\x00\x00\x1e\x00\x00\x00\x01\x00\x00\x00\x00\x00\x00\x00\x1e\x00\x00\x00\x01\x00\x00\x00\x00\x00\x00\x00\x1e\x00\x00\x00\x01\x00\x00\x00\x00\x00\x00\x00\x1e\x00\x00\x00\x01\x00\x00\x00\x00\x00\x00\x00\x1e\x00\x00\x00\x01\x00\x00\x00\x00\x00\x00\x00\x1e\x00\x00\x00\x01\x00\x00\x00\x00\x00\x00\x00\x1e\x00\x00\x00\x0c\x00\x00\x00Timo Lubitz\x00\x1e\x00\x00\x00\x02\x00\x00\x001\x00\x00\x00@\x00\x00\x00\x00@\x96\x8dJ\xaa\x06\x00@\x00\x00\x00\x00\x00\x00\x00\x00\x00\x00\x00@\x00\x00\x00\x00\x00\x00\x00\x00\x00\x00\x00@\x00\x00\x00w+Xc&#x27;\x03\xd0\x01\xfe\xff\x00\x00\x01\x00\x02\x00\x00\x00\x00\x00\x00\x00\x00\x00\x00\x00\x00\x00\x00\x00\x00\x00\x02\x00\x00\x00\x02\xd5\xcd\xd5\x9c.\x1b\x10\x93\x97\x08\x00+,\xf9\xaeD\x00\x00\x00\x05\xd5\xcd\xd5\x9c.\x1b\x10\x93\x97\x08\x00+,\xf9\xae\\\x00\x00\x00\x18\x00\x00\x00\x01\x00\x00\x00\x01\x00\x00\x00\x10\x00\x00\x00\x02\x00\x00\x00\xe9\xfd\x00\x00\x18\x00\x00\x00\x01\x00\x00\x00\x01\x00\x00\x00\x10\x00\x00\x00\x02\x00\x00\x00\xe9\xfd\x00\x00\x00\x00\x00\x00\x00\x00\x00\x00\x00\x00\x00\x00\x00\x00\x00\x00\x00\x00\x00\x00\x00\x00\x00\x00\x00\x00\x00\x00\x00\x00\x00\x00\x00\x00\x00\x00\x00\x00\x00\x00\x00\x00\x00\x00\x00\x00\x00\x00\x00\x00\x00\x00\x00\x00\x00\x00\x00\x00\x00\x00\x00\x00\x00\x00\x00\x00\x00\x00\x00\x00\x00\x00\x00\x00\x00\x00\x00\x00\x00\x00\x00\x00\x00\x00\x00\x00\x00\x00\x00\x00\x00\x00\x00\x00\x00\x00\x00\x00\x00\x00\x00\x00\x00\x00\x00\x00\x00\x00\x00\x00\x00\x00\x00\x00\x00\x00\x00\x00\x00\x00\x00\x00\x00\x00\x00\x00\x00\x00\x00\x00\x00\x00\x00\x00\x00\x00\x00\x00\x00\x00\x00\x00\x00\x00\x00\x00\x00\x00\x00\x00\x00\x00\x00\x00\x00\x00\x00\x00\x00\x00\x00\x00\x00\x00\x00\x00\x00\x00\x00\x00\x00\x00\x00\x00\x00\x00\x00\x00\x00\x00\x00\x00\x00\x00\x00\x00\x00\x00\x00\x00\x00\x00\x00\x00\x00\x00\x00\x00\x00\x00\x00\x00\x00\x00R\x00o\x00o\x00t\x00 \x00E\x00n\x00t\x00r\x00y\x00\x00\x00\x00\x00\x00\x00\x00\x00\x00\x00\x00\x00\x00\x00\x00\x00\x00\x00\x00\x00\x00\x00\x00\x00\x00\x00\x00\x00\x00\x00\x00\x00\x00\x00\x00\x00\x00\x00\x00\x00\x00\x00\x00\x00\x16\x00\x05\x00\xff\xff\xff\xff\xff\xff\xff\xff\x01\x00\x00\x00\x10\x08\x02\x00\x00\x00\x00\x00\xc0\x00\x00\x00\x00\x00\x00F\x00\x00\x00\x00\x00\x00\x00\x00\x00\x00\x00\x00\x00\x00\x00\x00\x00\x00\x00\x00\x03\x00\x00\x00@\r\x00\x00\x00\x00\x00\x00W\x00o\x00r\x00k\x00b\x00o\x00o\x00k\x00\x00\x00\x00\x00\x00\x00\x00\x00\x00\x00\x00\x00\x00\x00\x00\x00\x00\x00\x00\x00\x00\x00\x00\x00\x00\x00\x00\x00\x00\x00\x00\x00\x00\x00\x00\x00\x00\x00\x00\x00\x00\x00\x00\x00\x00\x00\x00\x00\x12\x00\x02\x00\x02\x00\x00\x00\x04\x00\x00\x00\xff\xff\xff\xff\x00\x00\x00\x00\x00\x00\x00\x00\x00\x00\x00\x00\x00\x00\x00\x00\x00\x00\x00\x00\x00\x00\x00\x00\x00\x00\x00\x00\x00\x00\x00\x00\x00\x00\x00\x00\x00\x00\x00\x00\x99\n\x00\x00\x00\x00\x00\x00\x01\x00C\x00o\x00m\x00p\x00O\x00b\x00j\x00\x00\x00\x00\x00\x00\x00\x00\x00\x00\x00\x00\x00\x00\x00\x00\x00\x00\x00\x00\x00\x00\x00\x00\x00\x00\x00\x00\x00\x00\x00\x00\x00\x00\x00\x00\x00\x00\x00\x00\x00\x00\x00\x00\x00\x00\x00\x00\x00\x12\x00\x02\x00\x03\x00\x00\x00\xff\xff\xff\xff\xff\xff\xff\xff\x00\x00\x00\x00\x00\x00\x00\x00\x00\x00\x00\x00\x00\x00\x00\x00\x00\x00\x00\x00\x00\x00\x00\x00\x00\x00\x00\x00\x00\x00\x00\x00\x00\x00\x00\x00+\x00\x00\x00I\x00\x00\x00\x00\x00\x00\x00\x01\x00O\x00l\x00e\x00\x00\x00\x00\x00\x00\x00\x00\x00\x00\x00\x00\x00\x00\x00\x00\x00\x00\x00\x00\x00\x00\x00\x00\x00\x00\x00\x00\x00\x00\x00\x00\x00\x00\x00\x00\x00\x00\x00\x00\x00\x00\x00\x00\x00\x00\x00\x00\x00\x00\x00\x00\x00\x00\x00\x00\x00\n\x00\x02\x00\xff\xff\xff\xff\xff\xff\xff\xff\xff\xff\xff\xff\x00\x00\x00\x00\x00\x00\x00\x00\x00\x00\x00\x00\x00\x00\x00\x00\x00\x00\x00\x00\x00\x00\x00\x00\x00\x00\x00\x00\x00\x00\x00\x00\x00\x00\x00\x00-\x00\x00\x00\x14\x00\x00\x00\x00\x00\x00\x00\x05\x00S\x00u\x00m\x00m\x00a\x00r\x00y\x00I\x00n\x00f\x00o\x00r\x00m\x00a\x00t\x00i\x00o\x00n\x00\x00\x00\x00\x00\x00\x00\x00\x00\x00\x00\x00\x00\x00\x00\x00\x00\x00\x00\x00\x00\x00\x00\x00\x00\x00\x00(\x00\x02\x00\xff\xff\xff\xff\x05\x00\x00\x00\xff\xff\xff\xff\x00\x00\x00\x00\x00\x00\x00\x00\x00\x00\x00\x00\x00\x00\x00\x00\x00\x00\x00\x00\x00\x00\x00\x00\x00\x00\x00\x00\x00\x00\x00\x00\x00\x00\x00\x00.\x00\x00\x00@\x01\x00\x00\x00\x00\x00\x00\x05\x00D\x00o\x00c\x00u\x00m\x00e\x00n\x00t\x00S\x00u\x00m\x00m\x00a\x00r\x00y\x00I\x00n\x00f\x00o\x00r\x00m\x00a\x00t\x00i\x00o\x00n\x00\x00\x00\x00\x00\x00\x00\x00\x00\x00\x008\x00\x02\x00\xff\xff\xff\xff\xff\xff\xff\xff\xff\xff\xff\xff\x00\x00\x00\x00\x00\x00\x00\x00\x00\x00\x00\x00\x00\x00\x00\x00\x00\x00\x00\x00\x00\x00\x00\x00\x00\x00\x00\x00\x00\x00\x00\x00\x00\x00\x00\x003\x00\x00\x00t\x00\x00\x00\x00\x00\x00\x00\x00\x00\x00\x00\x00\x00\x00\x00\x00\x00\x00\x00\x00\x00\x00\x00\x00\x00\x00\x00\x00\x00\x00\x00\x00\x00\x00\x00\x00\x00\x00\x00\x00\x00\x00\x00\x00\x00\x00\x00\x00\x00\x00\x00\x00\x00\x00\x00\x00\x00\x00\x00\x00\x00\x00\x00\x00\x00\x00\x00\x00\x00\x00\x00\x00\x00\x00\x00\xff\xff\xff\xff\xff\xff\xff\xff\xff\xff\xff\xff\x00\x00\x00\x00\x00\x00\x00\x00\x00\x00\x00\x00\x00\x00\x00\x00\x00\x00\x00\x00\x00\x00\x00\x00\x00\x00\x00\x00\x00\x00\x00\x00\x00\x00\x00\x00\xfe\xff\xff\xff\x00\x00\x00\x00\x00\x00\x00\x00\x00\x00\x00\x00\x00\x00\x00\x00\x00\x00\x00\x00\x00\x00\x00\x00\x00\x00\x00\x00\x00\x00\x00\x00\x00\x00\x00\x00\x00\x00\x00\x00\x00\x00\x00\x00\x00\x00\x00\x00\x00\x00\x00\x00\x00\x00\x00\x00\x00\x00\x00\x00\x00\x00\x00\x00\x00\x00\x00\x00\x00\x00\x00\x00\x00\x00\x00\x00\xff\xff\xff\xff\xff\xff\xff\xff\xff\xff\xff\xff\x00\x00\x00\x00\x00\x00\x00\x00\x00\x00\x00\x00\x00\x00\x00\x00\x00\x00\x00\x00\x00\x00\x00\x00\x00\x00\x00\x00\x00\x00\x00\x00\x00\x00\x00\x00\xfe\xff\xff\xff\x00\x00\x00\x00\x00\x00\x00\x00</div></td></tr></table></div></td></tr><tr><td style="font-weight:bold;vertical-align:top;">todeletename</td><td style="vertical-align:top;">:</td><td><div><table><tr><td><div>sbtab_reaction_single_Reaction</div></td></tr></table></div></td></tr></table></div>'
tRp137
sS'etype'
p138
S"<type 'exceptions.SyntaxError'>"
p139
sS'date'
p140
S'Wed Nov 19 10:53:04 2014'
p141
sS'response'
p142
g69
(S's\xa61\x00\x00<div><table><tr><td style="font-weight:bold;vertical-align:top;">body</td><td style="vertical-align:top;">:</td><td><div>&lt;cStringIO.StringO object at 0x7f5866e92ab0&gt;</div></td></tr><tr><td style="font-weight:bold;vertical-align:top;">cookies</td><td style="vertical-align:top;">:</td><td><div><table><tr><td style="font-weight:bold;vertical-align:top;">session_id_sbtab</td><td style="vertical-align:top;">:</td><td><div>127.0.0.1-7f013fb8-d8ef-4bc2-8487-6dad284de278<table><tr><td style="font-weight:bold;vertical-align:top;">comment</td><td style="vertical-align:top;">:</td><td><div></div></td></tr><tr><td style="font-weight:bold;vertical-align:top;">domain</td><td style="vertical-align:top;">:</td><td><div></div></td></tr><tr><td style="font-weight:bold;vertical-align:top;">expires</td><td style="vertical-align:top;">:</td><td><div></div></td></tr><tr><td style="font-weight:bold;vertical-align:top;">httponly</td><td style="vertical-align:top;">:</td><td><div></div></td></tr><tr><td style="font-weight:bold;vertical-align:top;">max-age</td><td style="vertical-align:top;">:</td><td><div></div></td></tr><tr><td style="font-weight:bold;vertical-align:top;">path</td><td style="vertical-align:top;">:</td><td><div>/</div></td></tr><tr><td style="font-weight:bold;vertical-align:top;">secure</td><td style="vertical-align:top;">:</td><td><div></div></td></tr><tr><td style="font-weight:bold;vertical-align:top;">version</td><td style="vertical-align:top;">:</td><td><div></div></td></tr></table></div></td></tr></table></div></td></tr><tr><td style="font-weight:bold;vertical-align:top;">delimiters</td><td style="vertical-align:top;">:</td><td><div><table><tr><td><div>{{</div></td></tr><tr><td><div>}}</div></td></tr></table></div></td></tr><tr><td style="font-weight:bold;vertical-align:top;">files</td><td style="vertical-align:top;">:</td><td><div><table></table></div></td></tr><tr><td style="font-weight:bold;vertical-align:top;">flash</td><td style="vertical-align:top;">:</td><td><div></div></td></tr><tr><td style="font-weight:bold;vertical-align:top;">generic_patterns</td><td style="vertical-align:top;">:</td><td><div><table><tr><td><div>*</div></td></tr></table></div></td></tr><tr><td style="font-weight:bold;vertical-align:top;">google_analytics_id</td><td style="vertical-align:top;">:</td><td><div>None</div></td></tr><tr><td style="font-weight:bold;vertical-align:top;">headers</td><td style="vertical-align:top;">:</td><td><div><table><tr><td style="font-weight:bold;vertical-align:top;">X-Powered-By</td><td style="vertical-align:top;">:</td><td><div>web2py</div></td></tr></table></div></td></tr><tr><td style="font-weight:bold;vertical-align:top;">logo</td><td style="vertical-align:top;">:</td><td><div><a class="brand" data-w2p_disable_with="default" href="http://www.web2py.com/"><b>web<span>2</span>py</b>&trade;&nbsp;</a></div></td></tr><tr><td style="font-weight:bold;vertical-align:top;">menu</td><td style="vertical-align:top;">:</td><td><div><table><tr><td><div><table><tr><td><div>Home</div></td></tr><tr><td><div>False</div></td></tr><tr><td><div>/</div></td></tr><tr><td><div><table></table></div></td></tr></table></div></td></tr><tr><td><div><table><tr><td><div><span class="highlighted">web2py</span></div></td></tr><tr><td><div>False</div></td></tr><tr><td><div>http://web2py.com</div></td></tr><tr><td><div><table><tr><td><div><table><tr><td><div>My Sites</div></td></tr><tr><td><div>False</div></td></tr><tr><td><div>/admin/site</div></td></tr></table></div></td></tr><tr><td><div><table><tr><td><div>This App</div></td></tr><tr><td><div>False</div></td></tr><tr><td><div>/admin/design/SBtab</div></td></tr><tr><td><div>[(&lt;lazyT &#x27;Controller&#x27;&gt;, False, &#x27;/admin/edit/SBtab/controllers/default.py&#x27;), (&lt;lazyT &#x27;View&#x27;&gt;, False, &#x27;/admin/edit/SBtab/views/default/converter.html&#x27;), (&lt;lazyT &#x27;Layout&#x27;&gt;, False, &#x27;/admin/edit/SBtab/views/layout.html&#x27;), (&lt;lazyT &#x27;Stylesheet&#x27;&gt;, False, &#x27;/admin/edit/SBtab/static/css/web2py.css&#x27;), (&lt;lazyT &#x27;DB Model&#x27;&gt;, False, &#x27;/admin/edit/SBtab/models/db.py&#x27;), (&lt;lazyT &#x27;Menu Model&#x27;&gt;, False, &#x27;/admin/edit/SBtab/models/menu.py&#x27;), (&lt;lazyT &#x27;Database&#x27;&gt;, False, &#x27;/appadmin&#x27;), (&lt;lazyT &#x27;Errors&#x27;&gt;, False, &#x27;/admin/errors/SBtab&#x27;), (&lt;lazyT &#x27;About&#x27;&gt;, False, &#x27;/admin/about/SBtab&#x27;)]</div></td></tr></table></div></td></tr><tr><td><div><table><tr><td><div>web2py.com</div></td></tr><tr><td><div>False</div></td></tr><tr><td><div>http://www.web2py.com</div></td></tr><tr><td><div>[(&lt;lazyT &#x27;Download&#x27;&gt;, False, &#x27;http://www.web2py.com/examples/default/download&#x27;), (&lt;lazyT &#x27;Support&#x27;&gt;, False, &#x27;http://www.web2py.com/examples/default/support&#x27;), (&lt;lazyT &#x27;Demo&#x27;&gt;, False, &#x27;http://web2py.com/demo_admin&#x27;), (&lt;lazyT &#x27;Quick Examples&#x27;&gt;, False, &#x27;http://web2py.com/examples/default/examples&#x27;), (&lt;lazyT &#x27;FAQ&#x27;&gt;, False, &#x27;http://web2py.com/AlterEgo&#x27;), (&lt;lazyT &#x27;Videos&#x27;&gt;, False, &#x27;http://www.web2py.com/examples/default/videos/&#x27;), (&lt;lazyT &#x27;Free Applications&#x27;&gt;, False, &#x27;http://web2py.com/appliances&#x27;), (&lt;lazyT &#x27;Plugins&#x27;&gt;, False, &#x27;http://web2py.com/plugins&#x27;), (&lt;lazyT &#x27;Layouts&#x27;&gt;, False, &#x27;http://web2py.com/layouts&#x27;), (&lt;lazyT &#x27;Recipes&#x27;&gt;, False, &#x27;http://web2pyslices.com/&#x27;), (&lt;lazyT &#x27;Semantic&#x27;&gt;, False, &#x27;http://web2py.com/semantic&#x27;)]</div></td></tr></table></div></td></tr><tr><td><div><table><tr><td><div>Documentation</div></td></tr><tr><td><div>False</div></td></tr><tr><td><div>http://www.web2py.com/book</div></td></tr><tr><td><div>[(&lt;lazyT &#x27;Preface&#x27;&gt;, False, &#x27;http://www.web2py.com/book/default/chapter/00&#x27;), (&lt;lazyT &#x27;Introduction&#x27;&gt;, False, &#x27;http://www.web2py.com/book/default/chapter/01&#x27;), (&lt;lazyT &#x27;Python&#x27;&gt;, False, &#x27;http://www.web2py.com/book/default/chapter/02&#x27;), (&lt;lazyT &#x27;Overview&#x27;&gt;, False, &#x27;http://www.web2py.com/book/default/chapter/03&#x27;), (&lt;lazyT &#x27;The Core&#x27;&gt;, False, &#x27;http://www.web2py.com/book/default/chapter/04&#x27;), (&lt;lazyT &#x27;The Views&#x27;&gt;, False, &#x27;http://www.web2py.com/book/default/chapter/05&#x27;), (&lt;lazyT &#x27;Database&#x27;&gt;, False, &#x27;http://www.web2py.com/book/default/chapter/06&#x27;), (&lt;lazyT &#x27;Forms and Validators&#x27;&gt;, False, &#x27;http://www.web2py.com/book/default/chapter/07&#x27;), (&lt;lazyT &#x27;Email and SMS&#x27;&gt;, False, &#x27;http://www.web2py.com/book/default/chapter/08&#x27;), (&lt;lazyT &#x27;Access Control&#x27;&gt;, False, &#x27;http://www.web2py.com/book/default/chapter/09&#x27;), (&lt;lazyT &#x27;Services&#x27;&gt;, False, &#x27;http://www.web2py.com/book/default/chapter/10&#x27;), (&lt;lazyT &#x27;Ajax Recipes&#x27;&gt;, False, &#x27;http://www.web2py.com/book/default/chapter/11&#x27;), (&lt;lazyT &#x27;Components and Plugins&#x27;&gt;, False, &#x27;http://www.web2py.com/book/default/chapter/12&#x27;), (&lt;lazyT &#x27;Deployment Recipes&#x27;&gt;, False, &#x27;http://www.web2py.com/book/default/chapter/13&#x27;), (&lt;lazyT &#x27;Other Recipes&#x27;&gt;, False, &#x27;http://www.web2py.com/book/default/chapter/14&#x27;), (&lt;lazyT &#x27;Buy this book&#x27;&gt;, False, &#x27;http://stores.lulu.com/web2py&#x27;)]</div></td></tr></table></div></td></tr><tr><td><div><table><tr><td><div>Community</div></td></tr><tr><td><div>False</div></td></tr><tr><td><div>None</div></td></tr><tr><td><div>[(&lt;lazyT &#x27;Groups&#x27;&gt;, False, &#x27;http://www.web2py.com/examples/default/usergroups&#x27;), (&lt;lazyT &#x27;Twitter&#x27;&gt;, False, &#x27;http://twitter.com/web2py&#x27;), (&lt;lazyT &#x27;Live Chat&#x27;&gt;, False, &#x27;http://webchat.freenode.net/?channels=web2py&#x27;)]</div></td></tr></table></div></td></tr><tr><td><div><table><tr><td><div>Plugins</div></td></tr><tr><td><div>False</div></td></tr><tr><td><div>None</div></td></tr><tr><td><div>[(&#x27;plugin_wiki&#x27;, False, &#x27;http://web2py.com/examples/default/download&#x27;), (&lt;lazyT &#x27;Other Plugins&#x27;&gt;, False, &#x27;http://web2py.com/plugins&#x27;), (&lt;lazyT &#x27;Layout Plugins&#x27;&gt;, False, &#x27;http://web2py.com/layouts&#x27;)]</div></td></tr></table></div></td></tr></table></div></td></tr></table></div></td></tr></table></div></td></tr><tr><td style="font-weight:bold;vertical-align:top;">meta</td><td style="vertical-align:top;">:</td><td><div><table><tr><td style="font-weight:bold;vertical-align:top;">author</td><td style="vertical-align:top;">:</td><td><div>Your Name &lt;you@example.com&gt;</div></td></tr><tr><td style="font-weight:bold;vertical-align:top;">description</td><td style="vertical-align:top;">:</td><td><div>a cool new app</div></td></tr><tr><td style="font-weight:bold;vertical-align:top;">generator</td><td style="vertical-align:top;">:</td><td><div>Web2py Web Framework</div></td></tr><tr><td style="font-weight:bold;vertical-align:top;">keywords</td><td style="vertical-align:top;">:</td><td><div>web2py, python, framework</div></td></tr></table></div></td></tr><tr><td style="font-weight:bold;vertical-align:top;">models_to_run</td><td style="vertical-align:top;">:</td><td><div><table><tr><td><div>^\\w+\\.py$</div></td></tr><tr><td><div>^default/\\w+\\.py$</div></td></tr><tr><td><div>^default/converter/\\w+\\.py$</div></td></tr></table></div></td></tr><tr><td style="font-weight:bold;vertical-align:top;">postprocessing</td><td style="vertical-align:top;">:</td><td><div><table></table></div></td></tr><tr><td style="font-weight:bold;vertical-align:top;">session_client</td><td style="vertical-align:top;">:</td><td><div>127.0.0.1</div></td></tr><tr><td style="font-weight:bold;vertical-align:top;">session_cookie_compression_level</td><td style="vertical-align:top;">:</td><td><div>None</div></td></tr><tr><td style="font-weight:bold;vertical-align:top;">session_cookie_expires</td><td style="vertical-align:top;">:</td><td><div>None</div></td></tr><tr><td style="font-weight:bold;vertical-align:top;">session_cookie_key</td><td style="vertical-align:top;">:</td><td><div>None</div></td></tr><tr><td style="font-weight:bold;vertical-align:top;">session_data_name</td><td style="vertical-align:top;">:</td><td><div>session_data_sbtab</div></td></tr><tr><td style="font-weight:bold;vertical-align:top;">session_file</td><td style="vertical-align:top;">:</td><td><div>&lt;open file &#x27;/home/tlubitz/web2py/applications/SBtab/sessions/127.0.0.1-7f013fb8-d8ef-4bc2-8487-6dad284de278&#x27;, mode &#x27;rb+&#x27; at 0x7f5866f11780&gt;</div></td></tr><tr><td style="font-weight:bold;vertical-align:top;">session_filename</td><td style="vertical-align:top;">:</td><td><div>/home/tlubitz/web2py/applications/SBtab/sessions/127.0.0.1-7f013fb8-d8ef-4bc2-8487-6dad284de278</div></td></tr><tr><td style="font-weight:bold;vertical-align:top;">session_hash</td><td style="vertical-align:top;">:</td><td><div>b5a6094a5ce9ca21fa853022bba9835f</div></td></tr><tr><td style="font-weight:bold;vertical-align:top;">session_id</td><td style="vertical-align:top;">:</td><td><div>127.0.0.1-7f013fb8-d8ef-4bc2-8487-6dad284de278</div></td></tr><tr><td style="font-weight:bold;vertical-align:top;">session_id_name</td><td style="vertical-align:top;">:</td><td><div>session_id_sbtab</div></td></tr><tr><td style="font-weight:bold;vertical-align:top;">session_locked</td><td style="vertical-align:top;">:</td><td><div>True</div></td></tr><tr><td style="font-weight:bold;vertical-align:top;">session_masterapp</td><td style="vertical-align:top;">:</td><td><div>SBtab</div></td></tr><tr><td style="font-weight:bold;vertical-align:top;">session_new</td><td style="vertical-align:top;">:</td><td><div>False</div></td></tr><tr><td style="font-weight:bold;vertical-align:top;">session_storage_type</td><td style="vertical-align:top;">:</td><td><div>file</div></td></tr><tr><td style="font-weight:bold;vertical-align:top;">status</td><td style="vertical-align:top;">:</td><td><div>200</div></td></tr><tr><td style="font-weight:bold;vertical-align:top;">subtitle</td><td style="vertical-align:top;">:</td><td><div>customize me!</div></td></tr><tr><td style="font-weight:bold;vertical-align:top;">title</td><td style="vertical-align:top;">:</td><td><div>Sbtab</div></td></tr><tr><td style="font-weight:bold;vertical-align:top;">view</td><td style="vertical-align:top;">:</td><td><div>default/converter.html</div></td></tr></table></div>'
tRp143
sS'locals'
p144
(dp145
S'fromlist'
p146
S'[]'
p147
sS'modules_prefix'
p148
S"'applications.SBtab.modules'"
p149
sS'name'
p150
S"'sbtab2sbml'"
p151
sS'level'
p152
S'-1'
p153
sS'items'
p154
S"['', 'home', 'tlubitz', 'web2py', 'applications', 'SBtab']"
p155
sS'base_importer'
p156
S'<built-in function __import__>'
p157
sS'globals'
p158
S"{'A': <class 'gluon.html.A'>, 'ANY_OF': <class 'gluon.validators.ANY_OF'>, 'Auth': <class 'gluon.tools.Auth'>, 'B': <class 'gluon.html.B'>, 'BEAUTIFY': <class 'gluon.html.BEAUTIFY'>, 'BODY': <class 'gluon.html.BODY'>, 'BR': <class 'gluon.html.BR'>, 'BUTTON': <class 'gluon.html.BUTTON'>, 'CAT': <class 'gluon.html.CAT'>, 'CENTER': <class 'gluon.html.CENTER'>, ...}"
p159
sS'result'
p160
S'None'
p161
sS'oname'
p162
S"'sbtab2sbml'"
p163
sS'itemname'
p164
S"'sbtab2sbml'"
p165
sS'import_tb'
p166
S'None'
p167
sg144
S"{'A': <class 'gluon.html.A'>, 'ANY_OF': <class 'gluon.validators.ANY_OF'>, 'Auth': <class 'gluon.tools.Auth'>, 'B': <class 'gluon.html.B'>, 'BEAUTIFY': <class 'gluon.html.BEAUTIFY'>, 'BODY': <class 'gluon.html.BODY'>, 'BR': <class 'gluon.html.BR'>, 'BUTTON': <class 'gluon.html.BUTTON'>, 'CAT': <class 'gluon.html.CAT'>, 'CENTER': <class 'gluon.html.CENTER'>, ...}"
p168
sS'e2'
p169
S"SyntaxError('invalid syntax', ('applications/SBt...50, 34, '        for row in xls_file.nrows):\\n'))"
p170
sssS'traceback'
p171
S'Traceback (most recent call last):\n  File "/home/tlubitz/web2py/gluon/restricted.py", line 217, in restricted\n    exec ccode in environment\n  File "/home/tlubitz/web2py/applications/SBtab/controllers/default.py", line 15, in <module>\n    import sbtab2sbml\n  File "/home/tlubitz/web2py/gluon/custom_import.py", line 94, in custom_importer\n    raise e2  # there is an error in the module\n  File "applications/SBtab/modules/sbtab2sbml.py", line 50\n    for row in xls_file.nrows):\n                             ^\nSyntaxError: invalid syntax\n'
p172
s.